
./kernel/proc.o:     file format elf64-littleriscv

Contents of section .text:
 0000 397106fc 22f826f4 4af04eec 52e856e4  9q..".&.J.N.R.V.
 0010 5ae08000 aa899704 00009384 0400268b  Z.............&.
 0020 970a0000 938a0a00 37090004 7d193209  ........7...}.2.
 0030 170a0000 130a0a00 97000000 e7800000  ................
 0040 2a8631c1 b3856441 8d8583b7 0a00b385  *.1...dA........
 0050 f5028525 9b95d500 19478566 b305b940  ...%.....G.f...@
 0060 4e859700 0000e780 00009384 8416e395  N...............
 0070 44fde270 4274a274 0279e269 426aa26a  D..pBt.t.y.iBj.j
 0080 026b2161 82801705 00001305 05009700  .k!a............
 0090 0000e780 00003971 06fc22f8 26f44af0  ......9q..".&.J.
 00a0 4eec52e8 56e45ae0 80009705 00009385  N.R.V.Z.........
 00b0 05001705 00001305 05009700 0000e780  ................
 00c0 00009705 00009385 05001705 00001305  ................
 00d0 05009700 0000e780 00009704 00009384  ................
 00e0 0400170b 0000130b 0b00a68a 170a0000  ................
 00f0 130a0a00 37090004 7d193209 97090000  ....7...}.2.....
 0100 93890900 da852685 97000000 e7800000  ......&.........
 0110 23ac0400 b3875441 8d870337 0a00b387  #.....TA...7....
 0120 e7028527 9b97d700 b307f940 bce09384  ...'.......@....
 0130 8416e399 34fde270 4274a274 0279e269  ....4..pBt.t.y.i
 0140 426aa26a 026b2161 82804111 22e40008  Bj.j.k!a..A."...
 0150 12850125 22644101 82804111 22e40008  ...%"dA...A."...
 0160 92878127 9e071705 00001305 05003e95  ...'..........>.
 0170 22644101 82800111 06ec22e8 26e40010  "dA.......".&...
 0180 97000000 e7800000 92878127 9e071707  ...........'....
 0190 00001307 0700ba97 847b9700 0000e780  .........{......
 01a0 00002685 e2604264 a2640561 82804111  ..&..`Bd.d.a..A.
 01b0 06e422e0 00089700 0000e780 00009700  ..".............
 01c0 0000e780 00009707 000083a7 070089eb  ................
 01d0 97000000 e7800000 a2600264 41018280  .........`.dA...
 01e0 97070000 23a00700 05459700 0000e780  ....#....E......
 01f0 0000f9bf 011106ec 22e826e4 4ae00010  ........".&.J...
 0200 17090000 13090900 4a859700 0000e780  ........J.......
 0210 00009707 00009387 07008443 1b871400  ...........C....
 0220 98c34a85 97000000 e7800000 2685e260  ..J.........&..`
 0230 4264a264 02690561 82800111 06ec22e8  Bd.d.i.a......".
 0240 26e44ae0 00102a89 97000000 e7800000  &.J...*.........
 0250 aa8421c1 29479706 00009386 06000566  ..!.)G.........f
 0260 b7050004 fd15b205 97000000 e7800000  ................
 0270 63480502 19478336 89050566 b7050002  cH...G.6...f....
 0280 fd15b605 26859700 0000e780 00006341  ....&.........cA
 0290 05022685 e2604264 a2640269 05618280  ..&..`Bd.d.i.a..
 02a0 81452685 97000000 e7800000 8144d5b7  .E&..........D..
 02b0 81460546 b7050004 fd15b205 26859700  .F.F........&...
 02c0 0000e780 00008145 26859700 0000e780  .......E&.......
 02d0 00008144 7dbf0111 06ec22e8 26e44ae0  ...D}.....".&.J.
 02e0 0010aa84 2e898146 0546b705 0004fd15  .......F.F......
 02f0 b2059700 0000e780 00008146 0546b705  ...........F.F..
 0300 0002fd15 b6052685 97000000 e7800000  ......&.........
 0310 ca852685 97000000 e7800000 e2604264  ..&..........`Bd
 0320 a2640269 05618280 011106ec 22e826e4  .d.i.a......".&.
 0330 0010aa84 286d09c5 97000000 e7800000  ....(m..........
 0340 23bc0404 a86811c5 ac649700 0000e780  #....h...d......
 0350 000023b8 040423b4 040423a8 040223bc  ..#...#...#...#.
 0360 0402238c 041423b0 040223a4 040223a6  ..#...#...#...#.
 0370 040223ac 0400e260 4264a264 05618280  ..#....`Bd.d.a..
 0380 011106ec 22e826e4 4ae00010 97040000  ....".&.J.......
 0390 93840400 17090000 13090900 26859700  ............&...
 03a0 0000e780 00009c4c 81cf2685 97000000  .......L..&.....
 03b0 e7800000 93848416 e39224ff 814489a8  ..........$..D..
 03c0 97000000 e7800000 88d88547 9ccc9700  ...........G....
 03d0 0000e780 00002a89 a8ec31c1 26859700  ......*...1.&...
 03e0 0000e780 00002a89 a8e831c5 13060007  ......*...1.....
 03f0 81451385 04069700 0000e780 00009707  .E..............
 0400 00009387 0700bcf0 bc600567 ba97bcf4  .........`.g....
 0410 2685e260 4264a264 02690561 82802685  &..`Bd.d.i.a..&.
 0420 97000000 e7800000 26859700 0000e780  ........&.......
 0430 0000ca84 f1bf2685 97000000 e7800000  ......&.........
 0440 26859700 0000e780 0000ca84 d1b70111  &...............
 0450 06ec22e8 26e40010 97000000 e7800000  ..".&...........
 0460 aa849707 000023b0 a7001306 40039705  ......#.....@...
 0470 00009385 05002869 97000000 e7800000  ......(i........
 0480 8567bce4 b86c233c 0700b86c 1cfb4146  .g...l#<...l..AF
 0490 97050000 93850500 13858415 97000000  ................
 04a0 e7800000 17050000 13050500 97000000  ................
 04b0 e7800000 23b8a414 8d479ccc 26859700  ....#....G..&...
 04c0 0000e780 0000e260 4264a264 05618280  .......`Bd.d.a..
 04d0 011106ec 22e826e4 4ae00010 2a899700  ....".&.J...*...
 04e0 0000e780 0000aa84 2c65634c 20016346  ........,ecL .cF
 04f0 0902ace4 0145e260 4264a264 02690561  .....E.`Bd.d.i.a
 0500 82809146 3306b900 28699700 0000e780  ...F3...(i......
 0510 0000aa85 79fd7d55 f9bf3306 b9002869  ....y.}U..3...(i
 0520 97000000 e7800000 aa85e1b7 397106fc  ............9q..
 0530 22f826f4 4af04eec 52e856e4 80009700  ".&.J.N.R.V.....
 0540 0000e780 0000aa8a 97000000 e7800000  ................
 0550 630c0510 2a8a03b6 8a042c69 03b50a05  c...*.....,i....
 0560 97000000 e7800000 63480504 83b78a04  ........cH......
 0570 2334fa04 83b68a05 b6870337 8a059386  #4.........7....
 0580 061203b8 07008867 8c6b906f 23300701  .......g.k.o#0..
 0590 08e70ceb 10ef9387 07021307 0702e392  ................
 05a0 d7fe8337 8a0523b8 07069384 0a0d1309  ...7..#.........
 05b0 0a0d9389 0a150da0 52859700 0000e780  ........R.......
 05c0 00005285 97000000 e7800000 7d5959a0  ..R.........}YY.
 05d0 a1042109 638b3401 88607dd9 97000000  ..!.c.4..`}.....
 05e0 e7800000 2330a900 e5b703b5 0a159700  ....#0..........
 05f0 0000e780 00002338 aa144146 93858a15  ......#8..AF....
 0600 13058a15 97000000 e7800000 03290a03  .............)..
 0610 52859700 0000e780 00009704 00009384  R...............
 0620 04002685 97000000 e7800000 233c5a03  ..&.........#<Z.
 0630 26859700 0000e780 00005285 97000000  &.........R.....
 0640 e7800000 8d47232c fa005285 97000000  .....G#,..R.....
 0650 e7800000 4a85e270 4274a274 0279e269  ....J..pBt.t.y.i
 0660 426aa26a 21618280 7d59edb7 5d7186e4  Bj.j!a..}Y..]q..
 0670 a2e026fc 4af84ef4 52f056ec 5ae85ee4  ..&.J.N.R.V.Z.^.
 0680 62e08008 92878127 939b7700 17070000  b......'..w.....
 0690 13070700 5e972338 07021707 00001307  ....^.#8........
 06a0 0700ba9b 9e07170b 0000130b 0b003e9b  ..............>.
 06b0 970a0000 938a0a00 370a0080 134afaff  ........7....J..
 06c0 f3270010 93e72700 73900710 97040000  .'....'.s.......
 06d0 93840400 17090000 13090900 97090000  ................
 06e0 93890900 c5a8e107 63fde70c 9463945a  ........c....c.Z
 06f0 e39bc6fe aa85c5bf 03a80a00 1b0e0800  ................
 0700 970e0000 83ae0e00 0143d288 97070000  .........C......
 0710 93870700 35a823a8 c70123aa 070063c4  ....5.#...#...c.
 0720 16036394 d8029463 945a6387 d6010336  ..c....c.Zc....6
 0730 0300105a 63dbc600 83360300 945a6386  ...Zc....6...Zc.
 0740 d6013e83 19a03e83 b688e107 63f0e702  ..>...>.....c...
 0750 904bd447 3b05c840 9b850600 e30db5fa  .K.G;..@........
 0760 cc4be5f5 b19ebb86 064155bf 630c0302  .K.......AU.c...
 0770 033c0300 83270c03 17070000 2320f700  .<...'......# ..
 0780 62859700 0000e780 00000327 8c018d47  b..........'...G
 0790 6303f706 62859700 0000e780 00009384  c...b...........
 07a0 84e90da0 26859700 0000e780 0000984c  ....&..........L
 07b0 8d476306 f7062685 97000000 e7800000  .Gc...&.........
 07c0 11a09dd9 93848416 97070000 93870700  ................
 07d0 e3f8f4ee 83a70900 13971700 3e970e07  ............>...
 07e0 4a97e371 e9fc9058 81459707 00009387  J..q...X.E......
 07f0 07000545 e5bd9147 232cfc00 23388b03  ...E...G#,..#8..
 0800 93050c06 5e859700 0000e780 00002338  ....^.........#8
 0810 0b026285 97000000 e7800000 49b79147  ..b.........I..G
 0820 9ccc2338 9b029385 04065e85 97000000  ..#8......^.....
 0830 e7800000 23380b02 26859700 0000e780  ....#8..&.......
 0840 000049b7 797106f4 22f026ec 4ae84ee4  ..I.yq..".&.J.N.
 0850 00189700 0000e780 0000aa84 97000000  ................
 0860 e7800000 3dc99287 81279e07 17070000  ....=....'......
 0870 13070700 ba9703a7 870a8547 6317f706  ...........Gc...
 0880 984c9147 630bf706 f3270010 898bb5ef  .L.Gc....'......
 0890 92871709 00001309 09008127 9e07ca97  ...........'....
 08a0 83a9c70a 92878127 9e079705 00009385  .......'........
 08b0 0500be95 13850406 97000000 e7800000  ................
 08c0 92878127 9e073e99 2326390b a2700274  ...'..>.#&9..p.t
 08d0 e2644269 a2694561 82801705 00001305  .dBi.iEa........
 08e0 05009700 0000e780 00001705 00001305  ................
 08f0 05009700 0000e780 00001705 00001305  ................
 0900 05009700 0000e780 00001705 00001305  ................
 0910 05009700 0000e780 00000111 06ec22e8  ..............".
 0920 26e40010 97000000 e7800000 aa849700  &...............
 0930 0000e780 00008d47 9ccc9700 0000e780  .......G........
 0940 00002685 97000000 e7800000 e2604264  ..&..........`Bd
 0950 a2640561 82807971 06f422f0 26ec4ae8  .d.a..yq..".&.J.
 0960 4ee40018 aa892e89 97000000 e7800000  N...............
 0970 aa849700 0000e780 00004a85 97000000  ..........J.....
 0980 e7800000 23b03403 89479ccc 97000000  ....#.4..G......
 0990 e7800000 23b00402 26859700 0000e780  ....#...&.......
 09a0 00004a85 97000000 e7800000 a2700274  ..J..........p.t
 09b0 e2644269 a2694561 82803971 06fc22f8  .dBi.iEa..9q..".
 09c0 26f44af0 4eec52e8 56e48000 2a8a9704  &.J.N.R.V...*...
 09d0 00009384 04008949 8d4a1709 00001309  .......I.J......
 09e0 090011a8 26859700 0000e780 00009384  ....&...........
 09f0 84166386 24039700 0000e780 0000e388  ..c.$...........
 0a00 a4fe2685 97000000 e7800000 9c4ce39b  ..&..........L..
 0a10 37fd9c70 e39847fd 23ac5401 e1b7e270  7..p..G.#.T....p
 0a20 4274a274 0279e269 426aa26a 21618280  Bt.t.y.iBj.j!a..
 0a30 797106f4 22f026ec 4ae84ee4 52e00018  yq..".&.J.N.R...
 0a40 2a899704 00009384 0400170a 0000130a  *...............
 0a50 0a009709 00009389 090029a0 93848416  ..........).....
 0a60 638d3401 9c7ce39b 27ff0335 0a0088fc  c.4..|..'..5....
 0a70 97000000 e7800000 d5b7a270 0274e264  ...........p.t.d
 0a80 4269a269 026a4561 82807971 06f422f0  Bi.i.jEa..yq..".
 0a90 26ec4ae8 4ee452e0 0018aa89 97000000  &.J.N.R.........
 0aa0 e7800000 2a899707 000083b7 07009304  ....*...........
 0ab0 050d130a 05156393 a7021705 00001305  ......c.........
 0ac0 05009700 0000e780 00009700 0000e780  ................
 0ad0 000023b0 0400a104 63854401 886075f5  ..#.....c.D..`u.
 0ae0 ddbf9700 0000e780 00000335 09159700  ...........5....
 0af0 0000e780 00009700 0000e780 00002338  ..............#8
 0b00 09141705 00001305 05009700 0000e780  ................
 0b10 00004a85 97000000 e7800000 03358903  ..J..........5..
 0b20 97000000 e7800000 4a859700 0000e780  ........J.......
 0b30 00009706 000083a6 06001707 00001307  ................
 0b40 07009397 1600b697 8e07ba97 6375f704  ............cu..
 0b50 ba870145 85489705 00009385 05003a88  ...E.H........:.
 0b60 1da0fd36 94c1986f 98e39873 98e79877  ...6...o...s...w
 0b70 98eb4685 e1079441 13971600 36970e07  ..F....A....6...
 0b80 429763fa e7009863 105b0327 0903e30a  B.c....c.[.'....
 0b90 e6fc6dd1 c9bf2326 39039547 232cf900  ..m...#&9..G#,..
 0ba0 17050000 13050500 97000000 e7800000  ................
 0bb0 97000000 e7800000 17050000 13050500  ................
 0bc0 97000000 e7800000 797106f4 22f026ec  ........yq..".&.
 0bd0 4ae84ee4 00182a89 97040000 93840400  J.N...*.........
 0be0 97090000 93890900 26859700 0000e780  ........&.......
 0bf0 00009c58 638d2701 26859700 0000e780  ...Xc.'.&.......
 0c00 00009384 8416e391 34ff7d55 29a88547  ........4.}U)..G
 0c10 9cd4984c 8947630f f7002685 97000000  ...L.Gc...&.....
 0c20 e7800000 0145a270 0274e264 4269a269  .....E.p.t.dBi.i
 0c30 45618280 8d479ccc cdb70111 06ec22e8  Ea...G........".
 0c40 26e40010 aa849700 0000e780 00008547  &..............G
 0c50 9cd42685 97000000 e7800000 e2604264  ..&..........`Bd
 0c60 a2640561 82800111 06ec22e8 26e44ae0  .d.a......".&.J.
 0c70 0010aa84 97000000 e7800000 03a98402  ................
 0c80 26859700 0000e780 00004a85 e2604264  &.........J..`Bd
 0c90 a2640269 05618280 5d7186e4 a2e026fc  .d.i.a..]q....&.
 0ca0 4af84ef4 52f056ec 5ae85ee4 62e08008  J.N.R.V.Z.^.b...
 0cb0 2a8b9700 0000e780 00002a89 17050000  *.........*.....
 0cc0 13050500 97000000 e7800000 814b154a  .............K.J
 0cd0 854a9709 00009389 0900170c 0000130c  .J..............
 0ce0 0c005e87 97040000 93840400 bda083a9  ..^.............
 0cf0 0403630e 0b009146 1386c402 da850335  ..c....F.......5
 0d00 09059700 0000e780 00006345 05022685  ..........cE..&.
 0d10 97000000 e7800000 26859700 0000e780  ........&.......
 0d20 00001705 00001305 05009700 0000e780  ................
 0d30 0000b5a0 26859700 0000e780 00001705  ....&...........
 0d40 00001305 05009700 0000e780 0000fd59  ...............Y
 0d50 b9a09384 84166384 34039c7c e39b27ff  ......c.4..|..'.
 0d60 26859700 0000e780 00009c4c e38147f9  &..........L..G.
 0d70 26859700 0000e780 00005687 d9bf19c7  &.........V.....
 0d80 4a859700 0000e780 00001dc5 17050000  J...............
 0d90 13050500 97000000 e7800000 fd594e85  .............YN.
 0da0 a6600664 e2744279 a279027a e26a426b  .`.d.tBy.y.z.jBk
 0db0 a26b026c 61618280 e2854a85 97000000  .k.laa....J.....
 0dc0 e7800000 39bf7971 06f422f0 26ec4ae8  ....9.yq..".&.J.
 0dd0 4ee452e0 0018aa84 2e89b289 368a9700  N.R.........6...
 0de0 0000e780 00008dc0 d2864e86 ca852869  ..........N...(i
 0df0 97000000 e7800000 a2700274 e2644269  .........p.t.dBi
 0e00 a269026a 45618280 1b060a00 ce854a85  .i.jEa........J.
 0e10 97000000 e7800000 2685f9bf 797106f4  ........&...yq..
 0e20 22f026ec 4ae84ee4 52e00018 2a89ae84  ".&.J.N.R...*...
 0e30 b289368a 97000000 e7800000 8dc0d286  ..6.............
 0e40 4e86ca85 28699700 0000e780 0000a270  N...(i.........p
 0e50 0274e264 4269a269 026a4561 82801b06  .t.dBi.i.jEa....
 0e60 0a00ce85 4a859700 0000e780 00002685  ....J.........&.
 0e70 f9bf5d71 86e4a2e0 26fc4af8 4ef452f0  ..]q....&.J.N.R.
 0e80 56ec5ae8 5ee48008 17050000 13050500  V.Z.^...........
 0e90 97000000 e7800000 97040000 93840400  ................
 0ea0 17090000 13090900 154b9709 00009389  .........K......
 0eb0 0900970a 0000938a 0a00170a 0000130a  ................
 0ec0 0a00970b 0000938b 0b000da0 83a586ed  ................
 0ed0 56859700 0000e780 00005285 97000000  V.........R.....
 0ee0 e7800000 93848416 63822403 a68683a7  ........c.$.....
 0ef0 04eceddb 4e86e36b fbfc1397 07029357  ....N..k.......W
 0f00 d701de97 906379f2 4e86c9b7 a6600664  .....cy.N....`.d
 0f10 e2744279 a279027a e26a426b a26b6161  .tBy.y.z.jBk.kaa
 0f20 8280                                 ..              
Contents of section .data:
 0000 17050000 13054502 97050000 93853502  ......E.......5.
 0010 93087000 73000000 93082000 73000000  ..p.s..... .s...
 0020 eff09fff 2f696e69 74000024 00000000  ..../init..$....
 0030 00000000                             ....            
Contents of section .rodata.str1.8:
 0000 6b616c6c 6f630000 6e657874 70696400  kalloc..nextpid.
 0010 77616974 5f6c6f63 6b000000 00000000  wait_lock.......
 0020 70726f63 00000000 696e6974 636f6465  proc....initcode
 0030 00000000 00000000 2f000000 00000000  ......../.......
 0040 73636865 6420702d 3e6c6f63 6b000000  sched p->lock...
 0050 73636865 64206c6f 636b7300 00000000  sched locks.....
 0060 73636865 64207275 6e6e696e 67000000  sched running...
 0070 73636865 6420696e 74657272 75707469  sched interrupti
 0080 626c6500 00000000 696e6974 20657869  ble.....init exi
 0090 74696e67 00000000 7a6f6d62 69652065  ting....zombie e
 00a0 78697400 00000000 3f3f3f00 00000000  xit.....???.....
 00b0 0a000000 00000000 25642025 73202573  ........%d %s %s
 00c0 00000000 00000000 756e7573 65640000  ........unused..
 00d0 75736564 00000000 736c6565 70200000  used....sleep ..
 00e0 72756e62 6c650000 72756e20 20200000  runble..run   ..
 00f0 7a6f6d62 696500                      zombie.         
Contents of section .srodata.cst8:
 0000 a54ffaa4 4ffaa44f                    .O..O..O        
Contents of section .rodata:
 0000 00000000 00000000 00000000 00000000  ................
 0010 00000000 00000000 00000000 00000000  ................
 0020 00000000 00000000 00000000 00000000  ................
Contents of section .sdata:
 0000 01000000 01000000                    ........        
Contents of section .debug_info:
 0000 b2230000 02000000 00000801 00000000  .#..............
 0010 0c000000 00000000 00000000 00000000  ................
 0020 00000000 00000000 00000000 00020000  ................
 0030 00000301 18390000 00030407 00000000  .....9..........
 0040 03020700 00000002 00000000 03031853  ...............S
 0050 00000003 01080000 00000200 00000003  ................
 0060 08176600 00000308 07000000 00040000  ..f.............
 0070 0000024b 01117a00 00000508 5a000000  ...K..z.....Z...
 0080 06000000 00180402 08bb0000 00070000  ................
 0090 00000403 082d0000 00022300 07000000  .....-....#.....
 00a0 00040609 bb000000 02230808 63707500  .........#..cpu.
 00b0 04070f17 01000002 23100005 08c10000  ........#.......
 00c0 00030108 00000000 09c10000 000a6370  ..............cp
 00d0 75008005 16081701 00000700 00000005  u...............
 00e0 1710e302 00000223 00070000 00000518  .......#........
 00f0 121d0100 00022308 07000000 00051907  ......#.........
 0100 e9020000 02237807 00000000 051a07e9  .....#x.........
 0110 02000002 237c0005 08cd0000 00060000  ....#|..........
 0120 00007005 0208f101 00000872 61000503  ..p........ra...
 0130 0a5a0000 00022300 08737000 05040a5a  .Z....#..sp....Z
 0140 00000002 23080873 30000507 0a5a0000  ....#..s0....Z..
 0150 00022310 08733100 05080a5a 00000002  ..#..s1....Z....
 0160 23180873 32000509 0a5a0000 00022320  #..s2....Z....# 
 0170 08733300 050a0a5a 00000002 23280873  .s3....Z....#(.s
 0180 3400050b 0a5a0000 00022330 08733500  4....Z....#0.s5.
 0190 050c0a5a 00000002 23380873 3600050d  ...Z....#8.s6...
 01a0 0a5a0000 00022340 08733700 050e0a5a  .Z....#@.s7....Z
 01b0 00000002 23480873 3800050f 0a5a0000  ....#H.s8....Z..
 01c0 00022350 08733900 05100a5a 00000002  ..#P.s9....Z....
 01d0 23580873 31300005 110a5a00 00000223  #X.s10....Z....#
 01e0 60087331 31000512 0a5a0000 00022368  `.s11....Z....#h
 01f0 000b0000 00006801 055508e3 02000007  ......h..U......
 0200 00000000 05561380 00000002 23000700  .....V......#...
 0210 00000005 59123005 00000223 18070000  ....Y.0....#....
 0220 0000055a 09670500 00022320 07000000  ...Z.g....# ....
 0230 00055b07 e9020000 02232807 00000000  ..[......#(.....
 0240 055c07e9 02000002 232c0870 69640005  .\......#,.pid..
 0250 5d07e902 00000223 30070000 00000560  ]......#0......`
 0260 10e30200 00022338 07000000 0005630a  ......#8......c.
 0270 5a000000 02234008 737a0005 640a5a00  Z....#@.sz..d.Z.
 0280 00000223 48070000 00000565 0f6d0000  ...#H......e.m..
 0290 00022350 07000000 00056615 69050000  ..#P......f.i...
 02a0 02235807 00000000 0567121d 01000002  .#X......g......
 02b0 23600700 00000005 68106f05 00000323  #`......h.o....#
 02c0 d0010863 77640005 69119105 00000323  ...cwd..i......#
 02d0 d0020700 00000005 6a089705 00000323  ........j......#
 02e0 d8020005 08f10100 000c0405 696e7400  ............int.
 02f0 0dcd0000 00000300 000e6600 00000700  ..........f.....
 0300 0f000000 00051d13 f0020000 01010b00  ................
 0310 00000020 01052b08 30050000 07000000  ... ..+.0.......
 0320 00052c14 5a000000 02230007 00000000  ..,.Z....#......
 0330 052d145a 00000002 23080700 00000005  .-.Z....#.......
 0340 2e145a00 00000223 10086570 6300052f  ..Z....#..epc../
 0350 145a0000 00022318 07000000 00053014  .Z....#.......0.
 0360 5a000000 02232008 72610005 31145a00  Z....# .ra..1.Z.
 0370 00000223 28087370 00053214 5a000000  ...#(.sp..2.Z...
 0380 02233008 67700005 33145a00 00000223  .#0.gp..3.Z....#
 0390 38087470 00053414 5a000000 02234008  8.tp..4.Z....#@.
 03a0 74300005 35145a00 00000223 48087431  t0..5.Z....#H.t1
 03b0 00053614 5a000000 02235008 74320005  ..6.Z....#P.t2..
 03c0 37145a00 00000223 58087330 00053814  7.Z....#X.s0..8.
 03d0 5a000000 02236008 73310005 39145a00  Z....#`.s1..9.Z.
 03e0 00000223 68086130 00053a14 5a000000  ...#h.a0..:.Z...
 03f0 02237008 61310005 3b145a00 00000223  .#p.a1..;.Z....#
 0400 78086132 00053c14 5a000000 03238001  x.a2..<.Z....#..
 0410 08613300 053d145a 00000003 23880108  .a3..=.Z....#...
 0420 61340005 3e145a00 00000323 90010861  a4..>.Z....#...a
 0430 3500053f 145a0000 00032398 01086136  5..?.Z....#...a6
 0440 00054014 5a000000 0323a001 08613700  ..@.Z....#...a7.
 0450 0541145a 00000003 23a80108 73320005  .A.Z....#...s2..
 0460 42145a00 00000323 b0010873 33000543  B.Z....#...s3..C
 0470 145a0000 000323b8 01087334 00054414  .Z....#...s4..D.
 0480 5a000000 0323c001 08733500 0545145a  Z....#...s5..E.Z
 0490 00000003 23c80108 73360005 46145a00  ....#...s6..F.Z.
 04a0 00000323 d0010873 37000547 145a0000  ...#...s7..G.Z..
 04b0 000323d8 01087338 00054814 5a000000  ..#...s8..H.Z...
 04c0 0323e001 08733900 0549145a 00000003  .#...s9..I.Z....
 04d0 23e80108 73313000 054a145a 00000003  #...s10..J.Z....
 04e0 23f00108 73313100 054b145a 00000003  #...s11..K.Z....
 04f0 23f80108 74330005 4c145a00 00000323  #...t3..L.Z....#
 0500 80020874 3400054d 145a0000 00032388  ...t4..M.Z....#.
 0510 02087435 00054e14 5a000000 03239002  ..t5..N.Z....#..
 0520 08743600 054f145a 00000003 23980200  .t6..O.Z....#...
 0530 10000000 00070439 00000005 52066705  .......9....R.g.
 0540 00001100 00000000 11000000 00011100  ................
 0550 00000002 11000000 00031100 00000004  ................
 0560 11000000 00050012 0805080e 0300000d  ................
 0570 7f050000 7f050000 0e660000 000f0005  .........f......
 0580 08850500 00130000 00000113 00000000  ................
 0590 0105088b 0500000d c1000000 a7050000  ................
 05a0 0e660000 000f000d f1010000 b7050000  .f..............
 05b0 0e660000 003f000f 00000000 056d14a7  .f...?.......m..
 05c0 05000001 01060000 00001805 6f081e06  ............o...
 05d0 00000700 00000005 7010e302 00000223  ........p......#
 05e0 00070000 00000571 07e90200 00022308  .......q......#.
 05f0 07000000 00057207 e9020000 02230c07  ......r......#..
 0600 00000000 057307e9 02000002 23100700  .....s......#...
 0610 00000005 7407e902 00000223 14000dc5  ....t......#....
 0620 0500002e 0600000e 66000000 3f000f00  ........f...?...
 0630 00000005 76171e06 00000101 0f000000  ....v...........
 0640 0005770c e9020000 01010f00 00000006  ..w.............
 0650 95112d00 00000101 14000300 0001090c  ..-.............
 0660 09030000 00000000 000014b7 05000001  ................
 0670 0b0d0903 00000000 00000000 142e0600  ................
 0680 00010c10 09030000 00000000 0000143c  ...............<
 0690 06000001 0d050903 00000000 00000000  ................
 06a0 15000000 00010e05 e9020000 01090300  ................
 06b0 00000000 00000015 00000000 01100ee3  ................
 06c0 02000001 09030000 00000000 00001500  ................
 06d0 00000001 1205e902 00000109 03000000  ................
 06e0 00000000 00150000 00000113 11800000  ................
 06f0 00010903 00000000 00000000 0dc10000  ................
 0700 00070700 0016000f 00000000 01180dfc  ................
 0710 06000001 01150000 0000011e 11800000  ................
 0720 00010903 00000000 00000000 0d470000  .............G..
 0730 003c0700 000e6600 00003300 15000000  .<....f...3.....
 0740 0001e007 2c070000 01090300 00000000  ....,...........
 0750 00000017 01000000 00065011 01016907  ..........P...i.
 0760 000018bb 00000019 001a0100 00000006  ................
 0770 b21101e9 02000001 91070000 186d0000  .............m..
 0780 0018bb00 0000185a 00000018 5a000000  .......Z....Z...
 0790 001a0100 00000006 85110167 05000001  ...........g....
 07a0 b4070000 18670500 0018b407 0000182d  .....g.........-
 07b0 00000000 0508ba07 00001b1c 01000000  ................
 07c0 00069911 01011701 00000000 06261101  .............&..
 07d0 01db0700 0018e902 0000001a 01000000  ................
 07e0 00067711 01e90200 0001f407 000018f4  ..w.............
 07f0 07000000 05088000 00001701 00000000  ................
 0800 06731101 01140800 00181408 00001814  .s..............
 0810 08000000 05081d01 00001a01 00000000  ................
 0820 06b11101 e9020000 01420800 00186d00  .........B....m.
 0830 0000185a 00000018 bb000000 185a0000  ...Z.........Z..
 0840 00001c01 00000000 06471101 01170100  .........G......
 0850 00000006 2d110101 62080000 18910500  ....-...b.......
 0860 00001c01 00000000 06461101 01170100  .........F......
 0870 00000006 1e110101 82080000 187f0500  ................
 0880 00001a01 00000000 062a1101 91050000  .........*......
 0890 019b0800 00189105 0000001a 01000000  ................
 08a0 00061f11 017f0500 0001b408 0000187f  ................
 08b0 05000000 1a010000 000006ab 1101e902  ................
 08c0 000001d7 08000018 6d000000 186d0000  ........m....m..
 08d0 00185a00 0000001a 01000000 0006aa11  ..Z.............
 08e0 015a0000 0001fa08 0000186d 00000018  .Z.........m....
 08f0 5a000000 185a0000 00001a01 00000000  Z....Z..........
 0900 06a91101 5a000000 01220900 00186d00  ....Z...."....m.
 0910 0000185a 00000018 5a000000 18e90200  ...Z....Z.......
 0920 00001701 00000000 06401101 01370900  .........@...7..
 0930 00186705 0000001a 01000000 00068611  ..g.............
 0940 01670500 00015a09 00001867 05000018  .g....Z....g....
 0950 e9020000 182d0000 00001a01 00000000  .....-..........
 0960 06321101 91050000 01730900 0018bb00  .2.......s......
 0970 0000001a 01000000 00068711 01bb0000  ................
 0980 00019609 000018bb 00000018 96090000  ................
 0990 18e90200 00000508 c8000000 17010000  ................
 09a0 000006a8 110101bb 09000018 6d000000  ............m...
 09b0 18bb0900 00182d00 00000005 08470000  ......-......G..
 09c0 00170100 00000006 ad110101 e5090000  ................
 09d0 186d0000 00185a00 0000185a 00000018  .m....Z....Z....
 09e0 e9020000 00170100 00000006 ac110101  ................
 09f0 ff090000 186d0000 00185a00 0000001a  .....m....Z.....
 0a00 01000000 0006a611 01e90200 00012c0a  ..............,.
 0a10 0000186d 00000018 5a000000 185a0000  ...m....Z....Z..
 0a20 00185a00 000018e9 02000000 1d010000  ..Z.............
 0a30 000006a7 11016d00 00000117 01000000  ......m.........
 0a40 00067911 0101500a 000018f4 07000000  ..y...P.........
 0a50 17010000 00000676 11010165 0a000018  .......v...e....
 0a60 f4070000 001c0100 00000006 7b110101  ............{...
 0a70 1c010000 0000067a 11010117 01000000  .......z........
 0a80 00067811 0101950a 000018f4 07000018  ..x.............
 0a90 bb000000 00170100 00000006 a5110101  ................
 0aa0 be0a0000 186d0000 00185a00 0000185a  .....m....Z....Z
 0ab0 00000018 5a000000 18e90200 00001e01  ....Z...........
 0ac0 00000000 06511101 0101d40a 000018bb  .....Q..........
 0ad0 00000000 1d010000 0000063f 11016705  ...........?..g.
 0ae0 0000011f 01000000 0001cc02 01010000  ................
 0af0 00000000 00000000 00000000 00000000  ................
 0b00 00000190 0b000020 00000000 01ce0210  ....... ........
 0b10 900b0000 09030000 00000000 00002170  ..............!p
 0b20 0001d602 10e30200 00000000 00220000  ............."..
 0b30 000001d7 0209bb00 00000000 00002300  ..............#.
 0b40 00000000 00000053 0700005d 0b000024  .......S...]...$
 0b50 015a0903 00000000 00000000 00230000  .Z...........#..
 0b60 00000000 00005307 00007b0b 00002401  ......S...{...$.
 0b70 5a028500 24015d02 79000025 00000000  Z...$.].y..%....
 0b80 00000000 53070000 24015a02 84000000  ....S...$.Z.....
 0b90 0dbb0000 00a00b00 000e6600 00000500  ..........f.....
 0ba0 26010000 000001bd 020101e9 02000000  &...............
 0bb0 00000000 00000000 00000000 00000000  ................
 0bc0 00000001 6d0c0000 27647374 0001bd02  ....m...'dst....
 0bd0 15670500 00000000 00280000 000001bd  .g.......(......
 0be0 021ee902 00000000 00002773 72630001  ..........'src..
 0bf0 bd022f5a 00000000 00000027 6c656e00  ../Z.......'len.
 0c00 01bd023b 5a000000 00000000 21700001  ...;Z.......!p..
 0c10 bf0210e3 02000000 00000029 00000000  ...........)....
 0c20 00000000 0b200000 23000000 00000000  ..... ..#.......
 0c30 00690700 004c0c00 0024015b 02820024  .i...L...$.[...$
 0c40 015c0283 0024015d 02840000 25000000  .\...$.]....%...
 0c50 00000000 00910700 0024015a 02820024  .........$.Z...$
 0c60 015b0283 0024015c 02840000 00260100  .[...$.\.....&..
 0c70 00000001 ae020101 e9020000 00000000  ................
 0c80 00000000 00000000 00000000 00000000  ................
 0c90 013a0d00 00280000 000001ae 0214e902  .:...(..........
 0ca0 00000000 00002764 73740001 ae02255a  ......'dst....%Z
 0cb0 00000000 00000027 73726300 01ae0230  .......'src....0
 0cc0 67050000 00000000 276c656e 0001ae02  g.......'len....
 0cd0 3c5a0000 00000000 00217000 01b00210  <Z.......!p.....
 0ce0 e3020000 00000000 29000000 00000000  ........).......
 0cf0 000b2000 00230000 00000000 00001a08  .. ..#..........
 0d00 0000190d 00002401 5b028200 24015c02  ......$.[...$.\.
 0d10 83002401 5d028400 00250000 00000000  ..$.]....%......
 0d20 00009107 00002401 5a028200 24015b02  ......$.Z...$.[.
 0d30 83002401 5c028400 00002601 00000000  ..$.\.....&.....
 0d40 01a00201 01e90200 00000000 00000000  ................
 0d50 00000000 00000000 00000000 0001ad0d  ................
 0d60 00002770 0001a002 15e30200 00000000  ..'p............
 0d70 00216b00 01a20207 e9020000 00000000  .!k.............
 0d80 23000000 00000000 00500a00 00980d00  #........P......
 0d90 0024015a 02790000 25000000 00000000  .$.Z.y..%.......
 0da0 003b0a00 0024015a 02790000 001f0100  .;...$.Z.y......
 0db0 00000001 98020101 00000000 00000000  ................
 0dc0 00000000 00000000 00000000 010d0e00  ................
 0dd0 00277000 01980218 e3020000 00000000  .'p.............
 0de0 23000000 00000000 00500a00 00f80d00  #........P......
 0df0 0024015a 02790000 25000000 00000000  .$.Z.y..%.......
 0e00 003b0a00 0024015a 02790000 00260100  .;...$.Z.y...&..
 0e10 00000001 83020101 e9020000 00000000  ................
 0e20 00000000 00000000 00000000 00000000  ................
 0e30 019a0e00 00277069 64000183 020ae902  .....'pid.......
 0e40 00000000 00002170 00018502 10e30200  ......!p........
 0e50 00000000 00230000 00000000 0000500a  .....#........P.
 0e60 00006d0e 00002401 5a027900 00230000  ..m...$.Z.y..#..
 0e70 00000000 00003b0a 0000850e 00002401  ......;.......$.
 0e80 5a027900 00250000 00000000 00003b0a  Z.y..%........;.
 0e90 00002401 5a027900 00001f01 00000000  ..$.Z.y.........
 0ea0 01700201 01000000 00000000 00000000  .p..............
 0eb0 00000000 00000000 0001180f 00002800  ..............(.
 0ec0 00000001 70020e67 05000000 00000021  ....p..g.......!
 0ed0 70000172 0210e302 00000000 00002300  p..r..........#.
 0ee0 00000000 0000003b 0a0000f6 0e000024  .......;.......$
 0ef0 015a0279 00002900 00000000 0000000b  .Z.y..).........
 0f00 20000025 00000000 00000000 500a0000   ..%........P...
 0f10 24015a02 79000000 1f010000 00000151  $.Z.y..........Q
 0f20 02010100 00000000 00000000 00000000  ................
 0f30 00000000 00000001 e30f0000 28000000  ............(...
 0f40 00015102 0d670500 00000000 00276c6b  ..Q..g.......'lk
 0f50 00015102 24f40700 00000000 00217000  ..Q.$........!p.
 0f60 01530210 e3020000 00000000 29000000  .S..........)...
 0f70 00000000 000b2000 00230000 00000000  ...... ..#......
 0f80 0000500a 0000910f 00002401 5a027900  ..P.......$.Z.y.
 0f90 00230000 00000000 00003b0a 0000a90f  .#........;.....
 0fa0 00002401 5a028200 00290000 00000000  ..$.Z....)......
 0fb0 0000d310 00002300 00000000 0000003b  ......#........;
 0fc0 0a0000ce 0f000024 015a0279 00002500  .......$.Z.y..%.
 0fd0 00000000 00000050 0a000024 015a0282  .......P...$.Z..
 0fe0 0000001f 01000000 00013c02 01010000  ..........<.....
 0ff0 00000000 00000000 00000000 00000000  ................
 1000 00000159 10000020 00000000 013e020e  ...Y... .....>..
 1010 e9020000 09030000 00000000 00002900  ..............).
 1020 00000000 0000000b 20000029 00000000  ........ ..)....
 1030 00000000 3b0a0000 29000000 00000000  ....;...).......
 1040 00bb0700 00250000 00000000 0000c607  .....%..........
 1050 00002401 5a013100 001f0100 00000001  ..$.Z.1.........
 1060 30020101 00000000 00000000 00000000  0...............
 1070 00000000 00000000 01d31000 00217000  .............!p.
 1080 01320210 e3020000 00000000 29000000  .2..........)...
 1090 00000000 000b2000 00230000 00000000  ...... ..#......
 10a0 0000500a 0000b110 00002401 5a027900  ..P.......$.Z.y.
 10b0 00290000 00000000 0000d310 00002500  .)............%.
 10c0 00000000 0000003b 0a000024 015a0279  .......;...$.Z.y
 10d0 0000001f 01000000 00011b02 01010000  ................
 10e0 00000000 00000000 00000000 00000000  ................
 10f0 000001a4 13000022 00000000 011d0207  ......."........
 1100 e9020000 00000000 21700001 1e0210e3  ........!p......
 1110 02000000 0000002a cc200000 00000000  .......*. ......
 1120 00000000 00000000 00000000 01220206  ............."..
 1130 7b110000 2bdf2000 002bea20 00002cf5  {...+. ..+. ..,.
 1140 20000000 00000000 00000000 00000000   ...............
 1150 00000001 4f0c2b08 2100002c 8d220000  ....O.+.!..,."..
 1160 00000000 00000000 00000000 00000000  ................
 1170 01460c2b 9f220000 0000002a ab220000  .F.+.".....*."..
 1180 00000000 00000000 00000000 00000000  ................
 1190 01260206 c1110000 2dbd2200 00000000  .&......-.".....
 11a0 002eec22 00000000 00000000 00000000  ..."............
 11b0 00000000 0000021e 010e2bfd 22000000  ..........+."...
 11c0 002acc20 00000000 00000000 00000000  .*. ............
 11d0 00000000 00000129 020c2512 00002bdf  .......)..%...+.
 11e0 2000002b ea200000 2cf52000 00000000   ..+. ..,. .....
 11f0 00000000 00000000 00000000 00014f0c  ..............O.
 1200 2b082100 002c8d22 00000000 00000000  +.!..,."........
 1210 00000000 00000000 00000146 0c2b9f22  ...........F.+."
 1220 00000000 002acc20 00000000 00000000  .....*. ........
 1230 00000000 00000000 0000012a 02178912  ...........*....
 1240 00002bdf 2000002b ea200000 2cf52000  ..+. ..+. ..,. .
 1250 00000000 00000000 00000000 00000000  ................
 1260 00014f0c 2b082100 002c8d22 00000000  ..O.+.!..,."....
 1270 00000000 00000000 00000000 00000146  ...............F
 1280 0c2b9f22 00000000 002acc20 00000000  .+.".....*. ....
 1290 00000000 00000000 00000000 0000012b  ...............+
 12a0 0203ed12 00002bdf 2000002b ea200000  ......+. ..+. ..
 12b0 2cf52000 00000000 00000000 00000000  ,. .............
 12c0 00000000 00014f0c 2b082100 002c8d22  ......O.+.!..,."
 12d0 00000000 00000000 00000000 00000000  ................
 12e0 00000146 0c2b9f22 00000000 00290000  ...F.+.".....)..
 12f0 00000000 00000b20 00002300 00000000  ....... ..#.....
 1300 000000db 07000012 13000024 015a0279  ...........$.Z.y
 1310 00002300 00000000 000000fa 0700002b  ..#............+
 1320 13000024 015a0379 e0000023 00000000  ...$.Z.y...#....
 1330 00000000 be0a0000 4a130000 24015a09  ........J...$.Z.
 1340 03000000 00000000 00002300 00000000  ..........#.....
 1350 000000be 0a000069 13000024 015a0903  .......i...$.Z..
 1360 00000000 00000000 00230000 00000000  .........#......
 1370 0000be0a 00008813 00002401 5a090300  ..........$.Z...
 1380 00000000 00000000 25000000 00000000  ........%.......
 1390 00be0a00 0024015a 09030000 00000000  .....$.Z........
 13a0 00000000 2f010000 000001cb 01010101  ..../...........
 13b0 00000000 00000000 00000000 00000000  ................
 13c0 00000000 01e11500 00217000 01cd0110  .........!p.....
 13d0 e3020000 00000000 21637000 01cd0114  ........!cp.....
 13e0 e3020000 00000000 21727470 0001ce01  ........!rtp....
 13f0 13e11500 00000000 00216300 01cf010f  .........!c.....
 1400 17010000 00000000 30000000 00201500  ........0.... ..
 1410 00220000 000001d7 010be902 00000000  ."..............
 1420 00002200 00000001 de010be9 02000000  ..".............
 1430 00000022 00000000 01df010b e9020000  ..."............
 1440 00000000 22000000 0001e001 17e11500  ...."...........
 1450 00000000 00230000 00000000 0000500a  .....#........P.
 1460 00006d14 00002401 5a028800 00230000  ..m...$.Z....#..
 1470 00000000 00003b0a 00008514 00002401  ......;.......$.
 1480 5a028800 00230000 00000000 0000500a  Z....#........P.
 1490 00009d14 00002401 5a027900 00230000  ......$.Z.y..#..
 14a0 00000000 00003b0a 0000b514 00002401  ......;.......$.
 14b0 5a027900 00230000 00000000 0000fa07  Z.y..#..........
 14c0 0000d414 00002401 5a028700 24015b03  ......$.Z...$.[.
 14d0 88e00000 23000000 00000000 003b0a00  ....#........;..
 14e0 00ec1400 0024015a 02880000 23000000  .....$.Z....#...
 14f0 00000000 00fa0700 000b1500 0024015a  .............$.Z
 1500 02870024 015b0379 e0000025 00000000  ...$.[.y...%....
 1510 00000000 3b0a0000 24015a02 79000000  ....;...$.Z.y...
 1520 2acc2000 00000000 00000000 00000000  *. .............
 1530 00000000 0001cf01 13841500 002bdf20  .............+. 
 1540 00002bea 2000002c f5200000 00000000  ..+. ..,. ......
 1550 00000000 00000000 00000000 014f0c2b  .............O.+
 1560 08210000 2c8d2200 00000000 00000000  .!..,.".........
 1570 00000000 00000000 0001460c 2b9f2200  ..........F.+.".
 1580 00000000 2ec92200 00000000 00000000  ......".........
 1590 00000000 00000000 0001d401 052aec22  .............*."
 15a0 00000000 00000000 00000000 00000000  ................
 15b0 00000210 010dc015 00002bfd 22000000  ..........+."...
 15c0 31d32200 00000000 00000000 00000000  1.".............
 15d0 00021001 0332e122 00000000 00000000  .....2."........
 15e0 000508c5 05000026 01000000 00019301  .......&........
 15f0 0101e902 00000000 00000000 00000000  ................
 1600 00000000 00000000 000001a3 17000028  ...............(
 1610 00000000 0193010d 5a000000 00000000  ........Z.......
 1620 21707000 01950110 e3020000 00000000  !pp.............
 1630 22000000 00019601 07e90200 00000000  "...............
 1640 00217069 64000196 0111e902 00000000  .!pid...........
 1650 00002170 00019701 10e30200 00000000  ..!p............
 1660 00290000 00000000 00000b20 00002300  .)......... ..#.
 1670 00000000 00000050 0a00008d 16000024  .......P.......$
 1680 015a0903 00000000 00000000 00230000  .Z...........#..
 1690 00000000 00001a08 0000b016 00002401  ..............$.
 16a0 5b028600 24015c02 792c2401 5d013400  [...$.\.y,$.].4.
 16b0 23000000 00000000 00361e00 00c81600  #........6......
 16c0 0024015a 02790000 23000000 00000000  .$.Z.y..#.......
 16d0 003b0a00 00e01600 0024015a 02790000  .;.......$.Z.y..
 16e0 23000000 00000000 003b0a00 00f81600  #........;......
 16f0 0024015a 02880000 23000000 00000000  .$.Z....#.......
 1700 003b0a00 00101700 0024015a 02790000  .;.......$.Z.y..
 1710 23000000 00000000 003b0a00 00281700  #........;...(..
 1720 0024015a 02880000 23000000 00000000  .$.Z....#.......
 1730 00500a00 00401700 0024015a 02790000  .P...@...$.Z.y..
 1740 23000000 00000000 003b0a00 00581700  #........;...X..
 1750 0024015a 02790000 23000000 00000000  .$.Z.y..#.......
 1760 003a0d00 00701700 0024015a 02820000  .:...p...$.Z....
 1770 23000000 00000000 003b0a00 00881700  #........;......
 1780 0024015a 02880000 25000000 00000000  .$.Z....%.......
 1790 00180f00 0024015a 02820024 015b0288  .....$.Z...$.[..
 17a0 0000001f 01000000 00015e01 01010000  ..........^.....
 17b0 00000000 00000000 00000000 00000000  ................
 17c0 0000015e 19000028 00000000 015e010a  ...^...(.....^..
 17d0 e9020000 00000000 21700001 600110e3  ........!p..`...
 17e0 02000000 00000022 00000000 017d0107  .......".....}..
 17f0 e9020000 00000000 33000000 00000000  ........3.......
 1800 00000000 00000000 004c1800 00216664  .........L...!fd
 1810 00016601 0be90200 00000000 00340000  ..f..........4..
 1820 00000000 00000000 00000000 00002166  ..............!f
 1830 00016801 147f0500 00000000 00290000  ..h..........)..
 1840 00000000 00006d08 00000000 30000000  ......m.....0...
 1850 00671800 00217274 7000017e 0117e115  .g...!rtp..~....
 1860 00000000 00000029 00000000 00000000  .......)........
 1870 0b200000 23000000 00000000 00be0a00  . ..#...........
 1880 00931800 0024015a 09030000 00000000  .....$.Z........
 1890 00000029 00000000 00000000 62080000  ...)........b...
 18a0 29000000 00000000 004d0800 00290000  )........M...)..
 18b0 00000000 00004208 00002300 00000000  ......B...#.....
 18c0 00000050 0a0000d9 18000024 015a0903  ...P.......$.Z..
 18d0 00000000 00000000 00230000 00000000  .........#......
 18e0 00005e19 0000f118 00002401 5a028200  ..^.......$.Z...
 18f0 00290000 00000000 00009a0e 00002300  .)............#.
 1900 00000000 00000050 0a000016 19000024  .......P.......$
 1910 015a0282 00002300 00000000 0000003b  .Z....#........;
 1920 0a000035 19000024 015a0903 00000000  ...5...$.Z......
 1930 00000000 00290000 00000000 0000d310  .....)..........
 1940 00002500 00000000 000000be 0a000024  ..%............$
 1950 015a0903 00000000 00000000 00001f01  .Z..............
 1960 00000000 014e0101 01000000 00000000  .....N..........
 1970 00000000 00000000 00000000 0001af19  ................
 1980 00002770 00014e01 17e30200 00000000  ..'p..N.........
 1990 00217070 00015001 10e30200 00000000  .!pp..P.........
 19a0 00290000 00000000 00009a0e 00000026  .).............&
 19b0 01000000 00011b01 0101e902 00000000  ................
 19c0 00000000 00000000 00000000 00000000  ................
 19d0 00000121 1b000021 6900011d 0107e902  ...!...!i.......
 19e0 00000000 00002170 69640001 1d010ae9  ......!pid......
 19f0 02000000 00000021 6e700001 1e0110e3  .......!np......
 1a00 02000000 00000021 7000011f 0110e302  .......!p.......
 1a10 00000000 00002900 00000000 0000000b  ......).........
 1a20 20000029 00000000 00000000 811e0000   ..)............
 1a30 29000000 00000000 00b40800 00230000  )............#..
 1a40 00000000 0000361e 0000551a 00002401  ......6...U...$.
 1a50 5a028400 00230000 00000000 00003b0a  Z....#........;.
 1a60 00006d1a 00002401 5a028400 00290000  ..m...$.Z....)..
 1a70 00000000 00009b08 00002900 00000000  ..........).....
 1a80 00000082 08000023 00000000 00000000  .......#........
 1a90 73090000 ac1a0000 24015a03 84d80224  s.......$.Z....$
 1aa0 015b0385 d8022401 5c014000 23000000  .[....$.\.@.#...
 1ab0 00000000 003b0a00 00c41a00 0024015a  .....;.......$.Z
 1ac0 02840000 23000000 00000000 00500a00  ....#........P..
 1ad0 00dc1a00 0024015a 02790000 23000000  .....$.Z.y..#...
 1ae0 00000000 003b0a00 00f41a00 0024015a  .....;.......$.Z
 1af0 02790000 23000000 00000000 00500a00  .y..#........P..
 1b00 000c1b00 0024015a 02840000 25000000  .....$.Z....%...
 1b10 00000000 003b0a00 0024015a 02840000  .....;...$.Z....
 1b20 00260100 00000001 07010101 e9020000  .&..............
 1b30 00000000 00000000 00000000 00000000  ................
 1b40 00000000 01a91b00 00276e00 0107010e  .........'n.....
 1b50 e9020000 00000000 21737a00 0109010a  ........!sz.....
 1b60 5a000000 00000000 21700001 0a0110e3  Z.......!p......
 1b70 02000000 00000029 00000000 00000000  .......)........
 1b80 0b200000 23000000 00000000 00fa0800  . ..#...........
 1b90 009b1b00 0024015d 01340029 00000000  .....$.].4.)....
 1ba0 00000000 d7080000 00350100 00000001  .........5......
 1bb0 ec010100 00000000 00000000 00000000  ................
 1bc0 00000000 00000001 6b1c0000 36700001  ........k...6p..
 1bd0 ee10e302 00000000 00002900 00000000  ..........).....
 1be0 00000081 1e000023 00000000 00000000  .......#........
 1bf0 9c090000 0c1c0000 24015b09 03000000  ........$.[.....
 1c00 00000000 0024015c 02083400 23000000  .....$.\..4.#...
 1c10 00000000 00730900 00371c00 0024015a  .....s...7...$.Z
 1c20 0379d802 24015b09 03000000 00000000  .y..$.[.........
 1c30 0024015c 01400023 00000000 00000000  .$.\.@.#........
 1c40 5a090000 561c0000 24015a09 03000000  Z...V...$.Z.....
 1c50 00000000 00002500 00000000 0000003b  ......%........;
 1c60 0a000024 015a0279 00000035 01000000  ...$.Z.y...5....
 1c70 0001d601 01000000 00000000 00000000  ................
 1c80 00000000 00000000 0001221d 00003700  .........."...7.
 1c90 00000001 d6206d00 00000000 00003873  ..... m.......8s
 1ca0 7a0001d6 325a0000 00000000 00230000  z...2Z.......#..
 1cb0 00000000 0000c109 0000da1c 00002401  ..............$.
 1cc0 5a027900 24015b07 1080e0ff ffff0724  Z.y.$.[........$
 1cd0 015c0131 24015d01 30002300 00000000  .\.1$.].0.#.....
 1ce0 000000c1 09000007 1d000024 015a0279  ...........$.Z.y
 1cf0 0024015b 071080c0 ffffff07 24015c01  .$.[........$.\.
 1d00 3124015d 01300025 00000000 00000000  1$.].0.%........
 1d10 e5090000 24015a02 79002401 5b028200  ....$.Z.y.$.[...
 1d20 00003901 00000000 01b40101 6d000000  ..9.........m...
 1d30 00000000 00000000 00000000 00000000  ................
 1d40 00000000 01361e00 00387000 01b41de3  .....6...8p.....
 1d50 02000000 0000003a 00000000 01b60f6d  .......:.......m
 1d60 00000000 00000029 00000000 00000000  .......)........
 1d70 2c0a0000 23000000 00000000 00ff0900  ,...#...........
 1d80 00a31d00 0024015a 02790024 015b0710  .....$.Z.y.$.[..
 1d90 80e0ffff ff072401 5c030a00 1024015e  ......$.\....$.^
 1da0 013a0023 00000000 00000000 ff090000  .:.#............
 1db0 d21d0000 24015a02 79002401 5b071080  ....$.Z.y.$.[...
 1dc0 c0ffffff 0724015c 030a0010 24015e01  .....$.\....$.^.
 1dd0 36002300 00000000 000000e5 090000ef  6.#.............
 1de0 1d000024 015a0279 0024015b 01300023  ...$.Z.y.$.[.0.#
 1df0 00000000 00000000 c1090000 1c1e0000  ................
 1e00 24015a02 79002401 5b071080 e0ffffff  $.Z.y.$.[.......
 1e10 0724015c 01312401 5d013000 25000000  .$.\.1$.].0.%...
 1e20 00000000 00e50900 0024015a 02790024  .........$.Z.y.$
 1e30 015b0130 00003b00 00000001 9f010100  .[.0..;.........
 1e40 00000000 00000000 00000000 00000000  ................
 1e50 00000001 811e0000 38700001 9f17e302  ........8p......
 1e60 00000000 00002900 00000000 00000022  ......)........"
 1e70 09000029 00000000 00000000 6b1c0000  ...)........k...
 1e80 003c0000 00000171 0101e302 00000000  .<.....q........
 1e90 00000000 00000000 00000000 00000000  ................
 1ea0 000001a8 1f000036 70000173 10e30200  .......6p..s....
 1eb0 00000000 003d0000 0000017f 01000000  .....=..........
 1ec0 00000000 00230000 00000000 0000500a  .....#........P.
 1ed0 0000dd1e 00002401 5a027900 00230000  ......$.Z.y..#..
 1ee0 00000000 00003b0a 0000f51e 00002401  ......;.......$.
 1ef0 5a027900 00290000 00000000 0000a81f  Z.y..)..........
 1f00 00002900 00000000 000000d4 0a000023  ..)............#
 1f10 00000000 00000000 221d0000 271f0000  ........"...'...
 1f20 24015a02 79000023 00000000 00000000  $.Z.y..#........
 1f30 37090000 4b1f0000 24015a03 79e00024  7...K...$.Z.y..$
 1f40 015b0130 24015c02 08700023 00000000  .[.0$.\..p.#....
 1f50 00000000 361e0000 631f0000 24015a02  ....6...c...$.Z.
 1f60 79000023 00000000 00000000 3b0a0000  y..#........;...
 1f70 7b1f0000 24015a02 79000023 00000000  {...$.Z.y..#....
 1f80 00000000 361e0000 931f0000 24015a02  ....6.......$.Z.
 1f90 79000025 00000000 00000000 3b0a0000  y..%........;...
 1fa0 24015a02 79000000 3e010000 00000160  $.Z.y...>......`
 1fb0 01e90200 00000000 00000000 00000000  ................
 1fc0 00000000 00000000 00010b20 00003670  ........... ..6p
 1fd0 69640001 6207e902 00000000 00002300  id..b.........#.
 1fe0 00000000 00000050 0a0000f6 1f000024  .......P.......$
 1ff0 015a0282 00002500 00000000 0000003b  .Z....%........;
 2000 0a000024 015a0282 00000039 01000000  ...$.Z.....9....
 2010 00015601 01e30200 00000000 00000000  ..V.............
 2020 00000000 00000000 00000000 0001cc20  ............... 
 2030 00003663 0001590f 17010000 00000000  ..6c..Y.........
 2040 36700001 5a10e302 00000000 00003fcc  6p..Z.........?.
 2050 20000000 00000000 00000000 00000000   ...............
 2060 00000001 5913b120 00002bdf 2000002b  ....Y.. ..+. ..+
 2070 ea200000 2cf52000 00000000 00000000  . ..,. .........
 2080 00000000 00000000 00014f0c 2b082100  ..........O.+.!.
 2090 002c8d22 00000000 00000000 00000000  .,."............
 20a0 00000000 00000146 0c2b9f22 00000000  .......F.+."....
 20b0 00290000 00000000 0000700a 00002900  .)........p...).
 20c0 00000000 00000065 0a000000 40010000  .......e....@...
 20d0 0000014d 01011701 000001f5 20000041  ...M........ ..A
 20e0 69640001 4f07e902 00004163 0001500f  id..O.....Ac..P.
 20f0 17010000 00400100 00000001 440101e9  .....@......D...
 2100 02000001 14210000 41696400 014607e9  .....!..Aid..F..
 2110 02000000 35010000 00000133 01010000  ....5......3....
 2120 00000000 00000000 00000000 00000000  ................
 2130 000001b8 21000036 70000135 10e30200  ....!..6p..5....
 2140 00000000 00230000 00000000 00007b0a  .....#........{.
 2150 00007121 00002401 5a090300 00000000  ..q!..$.Z.......
 2160 00000024 015b0903 00000000 00000000  ...$.[..........
 2170 00230000 00000000 00007b0a 00009d21  .#........{....!
 2180 00002401 5a090300 00000000 00000024  ..$.Z..........$
 2190 015b0903 00000000 00000000 00250000  .[...........%..
 21a0 00000000 00007b0a 00002401 5a027900  ......{...$.Z.y.
 21b0 24015b02 86000000 35010000 00000124  $.[.....5......$
 21c0 01010000 00000000 00000000 00000000  ................
 21d0 00000000 0000018d 22000037 00000000  ........"..7....
 21e0 01241c6d 00000000 00000036 70000126  .$.m.......6p..&
 21f0 10e30200 00000000 00420000 00003670  .........B....6p
 2200 61000129 0bbb0000 00000000 00367661  a..).........6va
 2210 00012c0c 5a000000 00000000 29000000  ..,.Z.......)...
 2220 00000000 00d40a00 00230000 00000000  .........#......
 2230 0000950a 00007022 00002401 5a028300  ......p"..$.Z...
 2240 24015b1f 82007900 86001c33 2610a59f  $.[...y....3&...
 2250 e9a7fac9 bed24f1e 23013d24 08202408  ......O.#.=$. $.
 2260 20261c24 015d030a 00102401 5e013600   &.$.]....$.^.6.
 2270 25000000 00000000 00be0a00 0024015a  %............$.Z
 2280 09030000 00000000 00000000 00430000  .............C..
 2290 0000022d 01015a00 000003ab 22000044  ...-..Z....."..D
 22a0 7800022f 010a5a00 00000043 00000000  x../..Z....C....
 22b0 021c0101 e9020000 03c92200 00447800  .........."..Dx.
 22c0 021e010a 5a000000 00450000 0000020e  ....Z....E......
 22d0 01010346 00000000 023c0101 03ec2200  ...F.....<....".
 22e0 00477800 023c125a 00000000 48000000  .Gx..<.Z....H...
 22f0 00023401 5a000000 03082300 00417800  ..4.Z.....#..Ax.
 2300 02360a5a 00000000 49f52000 00000000  .6.Z....I. .....
 2310 00000000 00000000 00000000 00000000  ................
 2320 00014c23 00004a08 21000001 5a2c8d22  ..L#..J.!...Z,."
 2330 00000000 00000000 00000000 00000000  ................
 2340 00000146 0c2b9f22 00000000 4bcc2000  ...F.+."....K. .
 2350 00000000 00000000 00000000 00000000  ................
 2360 00000000 00012ddf 20000000 0000002d  ......-. ......-
 2370 ea200000 00000000 2cf52000 00000000  . ......,. .....
 2380 00000000 00000000 00000000 00014f0c  ..............O.
 2390 2b082100 002c8d22 00000000 00000000  +.!..,."........
 23a0 00000000 00000000 00000146 0c2b9f22  ...........F.+."
 23b0 00000000 0000                        ......          
Contents of section .debug_abbrev:
 0000 01110125 0e130b03 0e1b0e11 01120110  ...%............
 0010 06000002 1600030e 3a0b3b0b 390b4913  ........:.;.9.I.
 0020 00000324 000b0b3e 0b030e00 00041600  ...$...>........
 0030 030e3a0b 3b05390b 49130000 050f000b  ..:.;.9.I.......
 0040 0b491300 00061301 030e0b0b 3a0b3b0b  .I..........:.;.
 0050 390b0113 0000070d 00030e3a 0b3b0b39  9..........:.;.9
 0060 0b491338 0a000008 0d000308 3a0b3b0b  .I.8........:.;.
 0070 390b4913 380a0000 09260049 1300000a  9.I.8....&.I....
 0080 13010308 0b0b3a0b 3b0b390b 01130000  ......:.;.9.....
 0090 0b130103 0e0b053a 0b3b0b39 0b011300  .......:.;.9....
 00a0 000c2400 0b0b3e0b 03080000 0d010149  ..$...>........I
 00b0 13011300 000e2100 49132f0b 00000f34  ......!.I./....4
 00c0 00030e3a 0b3b0b39 0b49133f 0c3c0c00  ...:.;.9.I.?.<..
 00d0 00100401 030e3e0b 0b0b4913 3a0b3b0b  ......>...I.:.;.
 00e0 390b0113 00001128 00030e1c 0b000012  9......(........
 00f0 0f000b0b 00001313 00030e3c 0c000014  ...........<....
 0100 34004713 3a0b3b0b 390b020a 00001534  4.G.:.;.9......4
 0110 00030e3a 0b3b0b39 0b49133f 0c020a00  ...:.;.9.I.?....
 0120 00162100 0000172e 013f0c03 0e3a0b3b  ..!......?...:.;
 0130 0b390b27 0c3c0c01 13000018 05004913  .9.'.<........I.
 0140 00001918 0000001a 2e013f0c 030e3a0b  ..........?...:.
 0150 3b0b390b 270c4913 3c0c0113 00001b26  ;.9.'.I.<......&
 0160 0000001c 2e003f0c 030e3a0b 3b0b390b  ......?...:.;.9.
 0170 270c3c0c 00001d2e 003f0c03 0e3a0b3b  '.<......?...:.;
 0180 0b390b27 0c49133c 0c00001e 2e013f0c  .9.'.I.<......?.
 0190 030e3a0b 3b0b390b 270c8701 0c3c0c01  ..:.;.9.'....<..
 01a0 1300001f 2e013f0c 030e3a0b 3b05390b  ......?...:.;.9.
 01b0 270c1101 12014006 97420c01 13000020  '.....@..B..... 
 01c0 3400030e 3a0b3b05 390b4913 020a0000  4...:.;.9.I.....
 01d0 21340003 083a0b3b 05390b49 13020600  !4...:.;.9.I....
 01e0 00223400 030e3a0b 3b05390b 49130206  ."4...:.;.9.I...
 01f0 00002389 82010111 01311301 13000024  ..#......1.....$
 0200 8a820100 020a9142 0a000025 89820101  .......B...%....
 0210 11013113 0000262e 013f0c03 0e3a0b3b  ..1...&..?...:.;
 0220 05390b27 0c491311 01120140 0697420c  .9.'.I.....@..B.
 0230 01130000 27050003 083a0b3b 05390b49  ....'....:.;.9.I
 0240 13020600 00280500 030e3a0b 3b05390b  .....(....:.;.9.
 0250 49130206 00002989 82010011 01311300  I.....)......1..
 0260 002a1d01 31131101 1201580b 5905570b  .*..1.....X.Y.W.
 0270 01130000 2b340031 1300002c 1d013113  ....+4.1...,..1.
 0280 11011201 580b590b 570b0000 2d340031  ....X.Y.W...-4.1
 0290 13020600 002e1d01 31131101 1201580b  ........1.....X.
 02a0 5905570b 00002f2e 013f0c03 0e3a0b3b  Y.W.../..?...:.;
 02b0 05390b27 0c87010c 11011201 40069742  .9.'........@..B
 02c0 0c011300 00300b01 55060113 0000311d  .....0..U.....1.
 02d0 01311352 01550658 0b590557 0b000032  .1.R.U.X.Y.W...2
 02e0 05003113 02060000 330b0111 01120101  ..1.....3.......
 02f0 13000034 0b011101 12010000 352e013f  ...4........5..?
 0300 0c030e3a 0b3b0b39 0b270c11 01120140  ...:.;.9.'.....@
 0310 0697420c 01130000 36340003 083a0b3b  ..B.....64...:.;
 0320 0b390b49 13020600 00370500 030e3a0b  .9.I.....7....:.
 0330 3b0b390b 49130206 00003805 0003083a  ;.9.I.....8....:
 0340 0b3b0b39 0b491302 06000039 2e013f0c  .;.9.I.....9..?.
 0350 030e3a0b 3b0b390b 270c4913 11011201  ..:.;.9.'.I.....
 0360 40069742 0c011300 003a3400 030e3a0b  @..B.....:4...:.
 0370 3b0b390b 49130206 00003b2e 01030e3a  ;.9.I.....;....:
 0380 0b3b0b39 0b270c11 01120140 0697420c  .;.9.'.....@..B.
 0390 01130000 3c2e0103 0e3a0b3b 0b390b27  ....<....:.;.9.'
 03a0 0c491311 01120140 0697420c 01130000  .I.....@..B.....
 03b0 3d0a0003 0e3a0b3b 0b390b11 0100003e  =....:.;.9.....>
 03c0 2e013f0c 030e3a0b 3b0b390b 49131101  ..?...:.;.9.I...
 03d0 12014006 97420c01 1300003f 1d013113  ..@..B.....?..1.
 03e0 11011201 580b590b 570b0113 0000402e  ....X.Y.W.....@.
 03f0 013f0c03 0e3a0b3b 0b390b27 0c491320  .?...:.;.9.'.I. 
 0400 0b011300 00413400 03083a0b 3b0b390b  .....A4...:.;.9.
 0410 49130000 420b0155 06000043 2e01030e  I...B..U...C....
 0420 3a0b3b05 390b4913 200b0113 00004434  :.;.9.I. .....D4
 0430 0003083a 0b3b0539 0b491300 00452e00  ...:.;.9.I...E..
 0440 030e3a0b 3b05390b 200b0000 462e0103  ..:.;.9. ...F...
 0450 0e3a0b3b 0b390b27 0c200b01 13000047  .:.;.9.'. .....G
 0460 05000308 3a0b3b0b 390b4913 0000482e  ....:.;.9.I...H.
 0470 01030e3a 0b3b0b39 0b491320 0b011300  ...:.;.9.I. ....
 0480 00492e01 31131101 12014006 97420c01  .I..1.....@..B..
 0490 1300004a 34003113 020a0000 4b2e0131  ...J4.1.....K..1
 04a0 13110112 01400697 420c0000 00        .....@..B....   
Contents of section .debug_loc:
 0000 00000000 00000000 00000000 00000000  ................
 0010 02007200 00000000 00000000 00000000  ..r.............
 0020 00000000 030072d0 00000000 00000000  ......r.........
 0030 00000000 00000000 00020078 00000000  ...........x....
 0040 00000000 00000000 00000000 00030072  ...............r
 0050 d0000000 00000000 00000000 00000000  ................
 0060 00000200 72000000 00000000 00000000  ....r...........
 0070 00000000 00000000 00000000 00000000  ................
 0080 00000000 00000a00 03000000 00000000  ................
 0090 009f0000 00000000 00000000 00000000  ................
 00a0 00000400 79a87d9f 00000000 00000000  ....y.}.........
 00b0 00000000 00000000 03007910 9f000000  ..........y.....
 00c0 00000000 00000000 00000000 00040079  ...............y
 00d0 a87d9f00 00000000 00000000 00000000  .}..............
 00e0 00000000 00000000 00000000 00000000  ................
 00f0 00000001 005c0000 00000000 00000000  .....\..........
 0100 00000000 00000000 00000000 00000000  ................
 0110 00000000 00000200 72000000 00000000  ........r.......
 0120 00000000 00000000 00000200 72300000  ............r0..
 0130 00000000 00000000 00000000 00000200  ................
 0140 78000000 00000000 00000000 00000000  x...............
 0150 00000200 72300000 00000000 00000000  ....r0..........
 0160 00000000 00000200 72000000 00000000  ........r.......
 0170 00000000 00000000 00000200 78000000  ............x...
 0180 00000000 00000000 00000000 00000000  ................
 0190 00000000 00000000 00000000 00000100  ................
 01a0 5a000000 00000000 00000000 00000000  Z...............
 01b0 00010062 00000000 00000000 00000000  ...b............
 01c0 00000000 0400f301 5a9f0000 00000000  ........Z.......
 01d0 00000000 00000000 00000100 62000000  ............b...
 01e0 00000000 00000000 00000000 00000000  ................
 01f0 00000000 00000000 00000000 0001005b  ...............[
 0200 00000000 00000000 00000000 00000000  ................
 0210 0400f301 5b9f0000 00000000 00000000  ....[...........
 0220 00000000 00000000 00000000 00000000  ................
 0230 00000000 00000100 5c000000 00000000  ........\.......
 0240 00000000 00000000 00010063 00000000  ...........c....
 0250 00000000 00000000 00000000 0400f301  ................
 0260 5c9f0000 00000000 00000000 00000000  \...............
 0270 00000100 63000000 00000000 00000000  ....c...........
 0280 00000000 00000000 00000000 00000000  ................
 0290 00000000 0001005d 00000000 00000000  .......]........
 02a0 00000000 00000000 01006400 00000000  ..........d.....
 02b0 00000000 00000000 00000004 00f3015d  ...............]
 02c0 9f000000 00000000 00000000 00000000  ................
 02d0 00010064 00000000 00000000 00000000  ...d............
 02e0 00000000 00000000 00000000 00000000  ................
 02f0 00000000 01005a00 00000000 00000000  ......Z.........
 0300 00000000 00000001 005a0000 00000000  .........Z......
 0310 00000000 00000000 00000000 00000000  ................
 0320 00000000 00000000 00000200 72000000  ............r...
 0330 00000000 00000000 00000000 00000200  ................
 0340 72300000 00000000 00000000 00000000  r0..............
 0350 00000200 78000000 00000000 00000000  ....x...........
 0360 00000000 00000200 72300000 00000000  ........r0......
 0370 00000000 00000000 00000200 72000000  ............r...
 0380 00000000 00000000 00000000 00000200  ................
 0390 78000000 00000000 00000000 00000000  x...............
 03a0 00000000 00000000 00000000 00000000  ................
 03b0 00000100 5a000000 00000000 00000000  ....Z...........
 03c0 00000000 000400f3 015a9f00 00000000  .........Z......
 03d0 00000000 00000000 00000000 00000000  ................
 03e0 00000000 00000000 00000001 005b0000  .............[..
 03f0 00000000 00000000 00000000 00000100  ................
 0400 62000000 00000000 00000000 00000000  b...............
 0410 000400f3 015b9f00 00000000 00000000  .....[..........
 0420 00000000 00000001 00620000 00000000  .........b......
 0430 00000000 00000000 00000000 00000000  ................
 0440 00000000 00000000 00000100 5c000000  ............\...
 0450 00000000 00000000 00000000 00010063  ...............c
 0460 00000000 00000000 00000000 00000000  ................
 0470 0400f301 5c9f0000 00000000 00000000  ....\...........
 0480 00000000 00000100 63000000 00000000  ........c.......
 0490 00000000 00000000 00000000 00000000  ................
 04a0 00000000 00000000 0001005d 00000000  ...........]....
 04b0 00000000 00000000 00000000 01006400  ..............d.
 04c0 00000000 00000000 00000000 00000004  ................
 04d0 00f3015d 9f000000 00000000 00000000  ...]............
 04e0 00000000 00010064 00000000 00000000  .......d........
 04f0 00000000 00000000 00000000 00000000  ................
 0500 00000000 00000000 01005a00 00000000  ..........Z.....
 0510 00000000 00000000 00000001 005a0000  .............Z..
 0520 00000000 00000000 00000000 00000000  ................
 0530 00000000 00000000 00000000 00000200  ................
 0540 72000000 00000000 00000000 00000000  r...............
 0550 00000200 72200000 00000000 00000000  ....r ..........
 0560 00000000 00000200 78000000 00000000  ........x.......
 0570 00000000 00000000 00000200 72200000  ............r ..
 0580 00000000 00000000 00000000 00000200  ................
 0590 72000000 00000000 00000000 00000000  r...............
 05a0 00000000 00000000 00000000 00000000  ................
 05b0 00000100 5a000000 00000000 00000000  ....Z...........
 05c0 00000000 00010059 00000000 00000000  .......Y........
 05d0 00000000 00000000 0400f301 5a9f0000  ............Z...
 05e0 00000000 00000000 00000000 00000000  ................
 05f0 00000000 00000000 00000000 00000200  ................
 0600 79280000 00000000 00000000 00000000  y(..............
 0610 00000100 62000000 00000000 00000000  ....b...........
 0620 00000000 0001005a 00000000 00000000  .......Z........
 0630 00000000 00000000 00000000 00000000  ................
 0640 00000000 00000000 02007200 00000000  ..........r.....
 0650 00000000 00000000 00000000 02007220  ..............r 
 0660 00000000 00000000 00000000 00000000  ................
 0670 02007800 00000000 00000000 00000000  ..x.............
 0680 00000000 02007220 00000000 00000000  ......r ........
 0690 00000000 00000000 02007200 00000000  ..........r.....
 06a0 00000000 00000000 00000000 00000000  ................
 06b0 00000000 00000000 00000000 01005a00  ..............Z.
 06c0 00000000 00000000 00000000 00000001  ................
 06d0 00590000 00000000 00000000 00000000  .Y..............
 06e0 00000400 f3015a9f 00000000 00000000  ......Z.........
 06f0 00000000 00000000 00000000 00000000  ................
 0700 00000000 00000000 02007200 00000000  ..........r.....
 0710 00000000 00000000 00000000 02007230  ..............r0
 0720 00000000 00000000 00000000 00000000  ................
 0730 02007800 00000000 00000000 00000000  ..x.............
 0740 00000000 02007230 00000000 00000000  ......r0........
 0750 00000000 00000000 02007200 00000000  ..........r.....
 0760 00000000 00000000 00000000 02007800  ..............x.
 0770 00000000 00000000 00000000 00000000  ................
 0780 00000000 00000000 00000000 00000000  ................
 0790 01005a00 00000000 00000000 00000000  ..Z.............
 07a0 00000004 00f3015a 9f000000 00000000  .......Z........
 07b0 00000000 00000000 00000000 00000000  ................
 07c0 00000000 00000000 000a0003 00000000  ................
 07d0 00000000 9f000000 00000000 00000000  ................
 07e0 00000000 00010059 00000000 00000000  .......Y........
 07f0 00000000 00000000 01005900 00000000  ..........Y.....
 0800 00000000 00000000 00000000 00000000  ................
 0810 00000000 00000000 00000002 00720000  .............r..
 0820 00000000 00000000 00000000 00000003  ................
 0830 0072c000 00000000 00000000 00000000  .r..............
 0840 00000000 02007800 00000000 00000000  ......x.........
 0850 00000000 00000000 030072c0 00000000  ..........r.....
 0860 00000000 00000000 00000000 00020072  ...............r
 0870 00000000 00000000 00000000 00000000  ................
 0880 00000000 00000000 00000000 00000000  ................
 0890 0001005a 00000000 00000000 00000000  ...Z............
 08a0 00000000 01006400 00000000 00000000  ......d.........
 08b0 00000000 00000004 00f3015a 9f000000  ...........Z....
 08c0 00000000 00000000 00000000 00000000  ................
 08d0 00000000 00000000 00000000 000a0003  ................
 08e0 00000000 00000000 9f000000 00000000  ................
 08f0 00000000 00000000 00010059 00000000  ...........Y....
 0900 00000000 00000000 00000000 00000000  ................
 0910 00000000 00000000 00000000 02007200  ..............r.
 0920 00000000 00000000 00000000 00000000  ................
 0930 02007230 00000000 00000000 00000000  ..r0............
 0940 00000000 02007800 00000000 00000000  ......x.........
 0950 00000000 00000000 02007230 00000000  ..........r0....
 0960 00000000 00000000 00000000 02007200  ..............r.
 0970 00000000 00000000 00000000 00000000  ................
 0980 00000000 00000000 00000000 00000000  ................
 0990 01005a00 00000000 00000000 00000000  ..Z.............
 09a0 00000001 00630000 00000000 00000000  .....c..........
 09b0 00000000 00000400 f3015a9f 00000000  ..........Z.....
 09c0 00000000 00000000 00000000 00000000  ................
 09d0 00000000 00000000 00000000 01005b00  ..............[.
 09e0 00000000 00000000 00000000 00000001  ................
 09f0 00620000 00000000 00000000 00000000  .b..............
 0a00 00000400 f3015b9f 00000000 00000000  ......[.........
 0a10 00000000 00000000 00000000 00000000  ................
 0a20 00000000 00000000 01005900 00000000  ..........Y.....
 0a30 00000000 00000000 00000000 00000000  ................
 0a40 00000000 00000000 00000002 00720000  .............r..
 0a50 00000000 00000000 00000000 00000002  ................
 0a60 00721000 00000000 00000000 00000000  .r..............
 0a70 00000002 00780000 00000000 00000000  .....x..........
 0a80 00000000 00000002 00721000 00000000  .........r......
 0a90 00000000 00000000 00000002 00720000  .............r..
 0aa0 00000000 00000000 00000000 00000002  ................
 0ab0 00780000 00000000 00000000 00000000  .x..............
 0ac0 00000000 00000000 00000000 00000000  ................
 0ad0 00000002 00720000 00000000 00000000  .....r..........
 0ae0 00000000 00000002 00722000 00000000  .........r .....
 0af0 00000000 00000000 00000002 00780000  .............x..
 0b00 00000000 00000000 00000000 00000002  ................
 0b10 00722000 00000000 00000000 00000000  .r .............
 0b20 00000002 00720000 00000000 00000000  .....r..........
 0b30 00000000 00000000 00000000 00000000  ................
 0b40 00000000 00000001 00590000 00000000  .........Y......
 0b50 00000000 00000000 00000000 00000000  ................
 0b60 00000000 00000000 00000200 72000000  ............r...
 0b70 00000000 00000000 00000000 00000200  ................
 0b80 72300000 00000000 00000000 00000000  r0..............
 0b90 00000200 78000000 00000000 00000000  ....x...........
 0ba0 00000000 00000200 72300000 00000000  ........r0......
 0bb0 00000000 00000000 00000200 72000000  ............r...
 0bc0 00000000 00000000 00000000 00000200  ................
 0bd0 78000000 00000000 00000000 00000000  x...............
 0be0 00000000 00000000 00000000 00000000  ................
 0bf0 00000300 7fac0100 00000000 00000000  ................
 0c00 00000000 00000000 00000000 00000000  ................
 0c10 00000000 00000001 00590000 00000000  .........Y......
 0c20 00000000 00000000 00000100 59000000  ............Y...
 0c30 00000000 00000000 00000000 00000000  ................
 0c40 00000000 00000000 00000000 0001005f  ..............._
 0c50 00000000 00000000 00000000 00000000  ................
 0c60 00000000 00000000 00000000 00000000  ................
 0c70 02007200 00000000 00000000 00000000  ..r.............
 0c80 00000000 030072d0 00000000 00000000  ......r.........
 0c90 00000000 00000000 00020078 00000000  ...........x....
 0ca0 00000000 00000000 00000000 00000000  ................
 0cb0 00000000 00000000 00000000 00010068  ...............h
 0cc0 00000000 00000000 00000000 00000000  ................
 0cd0 01005900 00000000 00000000 00000000  ..Y.............
 0ce0 00000001 00680000 00000000 00000000  .....h..........
 0cf0 00000000 00000100 59000000 00000000  ........Y.......
 0d00 00000000 00000000 00000000 00000000  ................
 0d10 00000000 00000000 000a0003 00000000  ................
 0d20 00000000 9f000000 00000000 00000000  ................
 0d30 00000000 00010059 00000000 00000000  .......Y........
 0d40 00000000 00000000 00000000 00000000  ................
 0d50 00000000 00000000 01005f00 00000000  .........._.....
 0d60 00000000 00000000 00000001 005f0000  ............._..
 0d70 00000000 00000000 00000000 00000100  ................
 0d80 5f000000 00000000 00000000 00000000  _...............
 0d90 000a0003 00000000 00000000 9f000000  ................
 0da0 00000000 00000000 00000000 00000000  ................
 0db0 00000000 00000000 00000000 0015007f  ................
 0dc0 00082024 08202637 24030000 00000000  .. $. &7$.......
 0dd0 0000229f 00000000 00000000 00000000  ..".............
 0de0 00000000 00000000 00000000 00000000  ................
 0df0 00000000 01005b00 00000000 00000000  ......[.........
 0e00 00000000 00000001 005b0000 00000000  .........[......
 0e10 00000000 00000000 00000100 5b000000  ............[...
 0e20 00000000 00000000 00000000 00020030  ...............0
 0e30 9f000000 00000000 00000000 00000000  ................
 0e40 00000000 00000000 00000000 00000000  ................
 0e50 0001005d 00000000 00000000 00000000  ...]............
 0e60 00000000 01005d00 00000000 00000000  ......].........
 0e70 00000000 0000000b 007f1094 047d0022  .............}."
 0e80 80001c9f 00000000 00000000 00000000  ................
 0e90 00000000 0d007f10 94048000 1c7f0c94  ................
 0ea0 04229f00 00000000 00000000 00000000  ."..............
 0eb0 00000000 00000000 00000000 00000000  ................
 0ec0 00000001 00610000 00000000 00000000  .....a..........
 0ed0 00000000 00000000 00000000 00000000  ................
 0ee0 00000000 00000100 56000000 00000000  ........V.......
 0ef0 00000000 00000000 00010056 00000000  ...........V....
 0f00 00000000 00000000 00000000 01005600  ..............V.
 0f10 00000000 00000000 00000000 00000000  ................
 0f20 00000000 00000000 00000000 00000005  ................
 0f30 007f0032 219f0000 00000000 00000000  ...2!...........
 0f40 00000000 00000100 5f000000 00000000  ........_.......
 0f50 00000000 00000000 00000000 00000000  ................
 0f60 00000000 00000000 00020072 00000000  ...........r....
 0f70 00000000 00000000 00000000 00030072  ...............r
 0f80 d0000000 00000000 00000000 00000000  ................
 0f90 00000200 78000000 00000000 00000000  ....x...........
 0fa0 00000000 00000300 72d00000 00000000  ........r.......
 0fb0 00000000 00000000 00000002 00720000  .............r..
 0fc0 00000000 00000000 00000000 00000002  ................
 0fd0 00780000 00000000 00000000 00000000  .x..............
 0fe0 00000000 00000000 00000000 00000000  ................
 0ff0 00000001 005a0000 00000000 00000000  .....Z..........
 1000 00000000 00000100 66000000 00000000  ........f.......
 1010 00000000 00000000 000400f3 015a9f00  .............Z..
 1020 00000000 00000000 00000000 00000001  ................
 1030 00660000 00000000 00000000 00000000  .f..............
 1040 00000000 00000000 00000000 00000000  ................
 1050 00000a00 03000000 00000000 009f0000  ................
 1060 00000000 00000000 00000000 00000100  ................
 1070 59000000 00000000 00000000 00000000  Y...............
 1080 00010059 00000000 00000000 00000000  ...Y............
 1090 00000000 00000000 00000000 00000000  ................
 10a0 00000000 0200309f 00000000 00000000  ......0.........
 10b0 00000000 00000000 0200319f 00000000  ..........1.....
 10c0 00000000 00000000 00000000 01005e00  ..............^.
 10d0 00000000 00000000 00000000 00000002  ................
 10e0 00319f00 00000000 00000000 00000000  .1..............
 10f0 00000001 005e0000 00000000 00000000  .....^..........
 1100 00000000 00000000 00000000 00000000  ................
 1110 00000000 00000100 63000000 00000000  ........c.......
 1120 00000000 00000000 00000000 00000000  ................
 1130 00000000 00000000 0001005a 00000000  ...........Z....
 1140 00000000 00000000 00000000 01006200  ..............b.
 1150 00000000 00000000 00000000 00000001  ................
 1160 00620000 00000000 00000000 00000000  .b..............
 1170 00000000 00000000 00000000 00000000  ................
 1180 00000200 72000000 00000000 00000000  ....r...........
 1190 00000000 00000200 72300000 00000000  ........r0......
 11a0 00000000 00000000 00000200 78000000  ............x...
 11b0 00000000 00000000 00000000 00000000  ................
 11c0 00000000 00000000 00000000 00000100  ................
 11d0 5a000000 00000000 00000000 00000000  Z...............
 11e0 000400f3 015a9f00 00000000 00000000  .....Z..........
 11f0 00000000 00000000 00000000 00000000  ................
 1200 00000000 00000001 005a0000 00000000  .........Z......
 1210 00000000 00000000 00000100 62000000  ............b...
 1220 00000000 00000000 00000000 00000000  ................
 1230 00000000 00000000 00000000 00020030  ...............0
 1240 9f000000 00000000 00000000 00000000  ................
 1250 00020031 9f000000 00000000 00000000  ...1............
 1260 00000000 0001005a 00000000 00000000  .......Z........
 1270 00000000 00000000 00000000 00000000  ................
 1280 00000000 00000000 0b007900 82001c08  ..........y.....
 1290 d01c3325 9f000000 00000000 00000000  ..3%............
 12a0 00000000 000d0079 0082001c 08d01c33  .......y.......3
 12b0 2523019f 00000000 00000000 00000000  %#..............
 12c0 00000000 0d007900 82001c08 d81c3325  ......y.......3%
 12d0 23019f00 00000000 00000000 00000000  #...............
 12e0 0000000b 00790082 001c08d0 1c33259f  .....y.......3%.
 12f0 00000000 00000000 00000000 00000000  ................
 1300 0d007900 82001c08 d81c3325 23019f00  ..y.......3%#...
 1310 00000000 00000000 00000000 00000000  ................
 1320 00000000 00000000 00000000 00000001  ................
 1330 005a0000 00000000 00000000 00000000  .Z..............
 1340 00000000 00000000 00000000 00000000  ................
 1350 00000a00 03000000 00000000 009f0000  ................
 1360 00000000 00000000 00000000 00000100  ................
 1370 5f000000 00000000 00000000 00000000  _...............
 1380 00000000 00000000 00000000 00000000  ................
 1390 00020072 00000000 00000000 00000000  ...r............
 13a0 00000000 00020072 30000000 00000000  .......r0.......
 13b0 00000000 00000000 00020078 00000000  ...........x....
 13c0 00000000 00000000 00000000 00020072  ...............r
 13d0 30000000 00000000 00000000 00000000  0...............
 13e0 00020072 00000000 00000000 00000000  ...r............
 13f0 00000000 00000000 00000000 00000000  ................
 1400 00000000 0001005a 00000000 00000000  .......Z........
 1410 00000000 00000000 01006200 00000000  ..........b.....
 1420 00000000 00000000 00000004 00f3015a  ...............Z
 1430 9f000000 00000000 00000000 00000000  ................
 1440 00000000 00000000 00000000 00000000  ................
 1450 000a0003 00000000 00000000 9f000000  ................
 1460 00000000 00000000 00000000 00010059  ...............Y
 1470 00000000 00000000 00000000 00000000  ................
 1480 00000000 00000000 00000000 00000000  ................
 1490 02007200 00000000 00000000 00000000  ..r.............
 14a0 00000000 030072c0 00000000 00000000  ......r.........
 14b0 00000000 00000000 00020078 00000000  ...........x....
 14c0 00000000 00000000 00000000 00030072  ...............r
 14d0 c0000000 00000000 00000000 00000000  ................
 14e0 00000200 72000000 00000000 00000000  ....r...........
 14f0 00000000 00000200 78000000 00000000  ........x.......
 1500 00000000 00000000 00000000 00000000  ................
 1510 00000000 00000000 00000200 309f0000  ............0...
 1520 00000000 00000000 00000000 00000d00  ................
 1530 79008500 1c08d01c 33252301 9f000000  y.......3%#.....
 1540 00000000 00000000 00000000 000d0079  ...............y
 1550 0085001c 08d81c33 2523019f 00000000  .......3%#......
 1560 00000000 00000000 00000000 0b007900  ..............y.
 1570 85001c08 d01c3325 9f000000 00000000  ......3%........
 1580 00000000 00000000 000d0079 0085001c  ...........y....
 1590 08d81c33 2523019f 00000000 00000000  ...3%#..........
 15a0 00000000 00000000 00000000 00000000  ................
 15b0 00000000 00000000 01006200 00000000  ..........b.....
 15c0 00000000 00000000 00000000 00000000  ................
 15d0 00000000 00000000 00000001 005a0000  .............Z..
 15e0 00000000 00000000 00000000 00000100  ................
 15f0 64000000 00000000 00000000 00000000  d...............
 1600 0001005a 00000000 00000000 00000000  ...Z............
 1610 00000000 00000000 00000000 00000000  ................
 1620 00000000 01005a00 00000000 00000000  ......Z.........
 1630 00000000 00000001 00650000 00000000  .........e......
 1640 00000000 00000000 00000100 65000000  ............e...
 1650 00000000 00000000 00000000 00000000  ................
 1660 00000000 00000000 00000000 00020072  ...............r
 1670 00000000 00000000 00000000 00000000  ................
 1680 00020072 20000000 00000000 00000000  ...r ...........
 1690 00000000 00020078 00000000 00000000  .......x........
 16a0 00000000 00000000 00020072 20000000  ...........r ...
 16b0 00000000 00000000 00000000 00020072  ...............r
 16c0 00000000 00000000 00000000 00000000  ................
 16d0 00020078 00000000 00000000 00000000  ...x............
 16e0 00000000 00000000 00000000 00000000  ................
 16f0 00000000 0001005a 00000000 00000000  .......Z........
 1700 00000000 00000000 0400f301 5a9f0000  ............Z...
 1710 00000000 00000000 00000000 00000000  ................
 1720 00000000 00000000 00000000 00000100  ................
 1730 5b000000 00000000 00000000 00000000  [...............
 1740 0001005a 00000000 00000000 00000000  ...Z............
 1750 00000000 01005b00 00000000 00000000  ......[.........
 1760 00000000 00000001 005a0000 00000000  .........Z......
 1770 00000000 00000000 00000000 00000000  ................
 1780 00000000 00000000 00000100 59000000  ............Y...
 1790 00000000 00000000 00000000 00010059  ...............Y
 17a0 00000000 00000000 00000000 00000000  ................
 17b0 00000000 00000000 00000000 00000000  ................
 17c0 02007200 00000000 00000000 00000000  ..r.............
 17d0 00000000 02007220 00000000 00000000  ......r ........
 17e0 00000000 00000000 02007800 00000000  ..........x.....
 17f0 00000000 00000000 00000000 02007220  ..............r 
 1800 00000000 00000000 00000000 00000000  ................
 1810 02007200 00000000 00000000 00000000  ..r.............
 1820 00000000 00000000 00000000 00000000  ................
 1830 00000000 01005900 00000000 00000000  ......Y.........
 1840 00000000 00000000 00000000 00000000  ................
 1850 00000000 00000002 00720000 00000000  .........r......
 1860 00000000 00000000 00000002 00722000  .............r .
 1870 00000000 00000000 00000000 00000002  ................
 1880 00780000 00000000 00000000 00000000  .x..............
 1890 00000002 00722000 00000000 00000000  .....r .........
 18a0 00000000 00000002 00720000 00000000  .........r......
 18b0 00000000 00000000 00000000 00000000  ................
 18c0 00000000 00000000 00000001 005a0000  .............Z..
 18d0 00000000 00000000 00000000 00000100  ................
 18e0 59000000 00000000 00000000 00000000  Y...............
 18f0 000400f3 015a9f00 00000000 00000000  .....Z..........
 1900 00000000 00000000 00000000 00000000  ................
 1910 00000000 00000001 005b0000 00000000  .........[......
 1920 00000000 00000000 00000100 62000000  ............b...
 1930 00000000 00000000 00000000 000400f3  ................
 1940 015b9f00 00000000 00000000 00000000  .[..............
 1950 00000000 00000000 00000000 00000000  ................
 1960 00000002 00720000 00000000 00000000  .....r..........
 1970 00000000 00000002 00722000 00000000  .........r .....
 1980 00000000 00000000 00000002 00780000  .............x..
 1990 00000000 00000000 00000000 00000002  ................
 19a0 00722000 00000000 00000000 00000000  .r .............
 19b0 00000002 00720000 00000000 00000000  .....r..........
 19c0 00000000 00000002 00780000 00000000  .........x......
 19d0 00000000 00000000 00000000 00000000  ................
 19e0 00000000 00000000 00000001 005a0000  .............Z..
 19f0 00000000 00000000 00000000 00000100  ................
 1a00 62000000 00000000 00000000 00000000  b...............
 1a10 000400f3 015a9f00 00000000 00000000  .....Z..........
 1a20 00000000 00000001 00620000 00000000  .........b......
 1a30 00000000 00000000 00000000 00000000  ................
 1a40 00000000 00000000 00000100 59000000  ............Y...
 1a50 00000000 00000000 00000000 00010059  ...............Y
 1a60 00000000 00000000 00000000 00000000  ................
 1a70 01005900 00000000 00000000 00000000  ..Y.............
 1a80 00000000 00000000 00000000 00000000  ................
 1a90 00000002 00720000 00000000 00000000  .....r..........
 1aa0 00000000 00000002 00722000 00000000  .........r .....
 1ab0 00000000 00000000 00000002 00780000  .............x..
 1ac0 00000000 00000000 00000000 00000002  ................
 1ad0 00722000 00000000 00000000 00000000  .r .............
 1ae0 00000002 00720000 00000000 00000000  .....r..........
 1af0 00000000 00000000 00000000 00000000  ................
 1b00 00000000 00000001 005a0000 00000000  .........Z......
 1b10 00000000 00000000 00000100 59000000  ............Y...
 1b20 00000000 00000000 00000000 000400f3  ................
 1b30 015a9f00 00000000 00000000 00000000  .Z..............
 1b40 00000000 00000000 00000000 00000000  ................
 1b50 00000002 00720000 00000000 00000000  .....r..........
 1b60 00000000 00000002 00722000 00000000  .........r .....
 1b70 00000000 00000000 00000002 00780000  .............x..
 1b80 00000000 00000000 00000000 00000002  ................
 1b90 00722000 00000000 00000000 00000000  .r .............
 1ba0 00000002 00720000 00000000 00000000  .....r..........
 1bb0 00000000 00000002 00780000 00000000  .........x......
 1bc0 00000000 00000000 00000000 00000000  ................
 1bd0 00000000 00000000 0000000a 00030000  ................
 1be0 00000000 00009f00 00000000 00000000  ................
 1bf0 00000000 00000001 00590000 00000000  .........Y......
 1c00 00000000 00000000 00000100 59000000  ............Y...
 1c10 00000000 00000000 00000000 00010059  ...............Y
 1c20 00000000 00000000 00000000 00000000  ................
 1c30 01005900 00000000 00000000 00000000  ..Y.............
 1c40 00000000 00000000 00000000 00000000  ................
 1c50 00000002 00720000 00000000 00000000  .....r..........
 1c60 00000000 00000002 00722000 00000000  .........r .....
 1c70 00000000 00000000 00000002 00780000  .............x..
 1c80 00000000 00000000 00000000 00000002  ................
 1c90 00722000 00000000 00000000 00000000  .r .............
 1ca0 00000002 00720000 00000000 00000000  .....r..........
 1cb0 00000000 00000000 00000000 00000000  ................
 1cc0 00000000 00000001 00590000 00000000  .........Y......
 1cd0 00000000 00000000 00000100 5a000000  ............Z...
 1ce0 00000000 00000000 00000000 00000000  ................
 1cf0 00000000 00000000 00000000 00020072  ...............r
 1d00 00000000 00000000 00000000 00000000  ................
 1d10 00020072 20000000 00000000 00000000  ...r ...........
 1d20 00000000 00020078 00000000 00000000  .......x........
 1d30 00000000 00000000 00020072 20000000  ...........r ...
 1d40 00000000 00000000 00000000 00020072  ...............r
 1d50 00000000 00000000 00000000 00000000  ................
 1d60 00000000 00000000 00000000 00000000  ................
 1d70 0015007f 00082024 08202637 24030000  ...... $. &7$...
 1d80 00000000 0000229f 00000000 00000000  ......".........
 1d90 00000000 00000000 00000000 00000000  ................
 1da0 00000000 00000000 01005900 00000000  ..........Y.....
 1db0 00000000 00000000 00000001 005a0000  .............Z..
 1dc0 00000000 00000000 00000000 00000000  ................
 1dd0 00000000 00000000 00000000 00000200  ................
 1de0 72000000 00000000 00000000 00000000  r...............
 1df0 00000300 72c00000 00000000 00000000  ....r...........
 1e00 00000000 00000002 00780000 00000000  .........x......
 1e10 00000000 00000000 00000003 0072c000  .............r..
 1e20 00000000 00000000 00000000 00000000  ................
 1e30 02007200 00000000 00000000 00000000  ..r.............
 1e40 00000000 00000000 00000000 00000000  ................
 1e50 00000000 0a000300 00000000 0000009f  ................
 1e60 00000000 00000000 00000000 00000000  ................
 1e70 01005900 00000000 00000000 00000000  ..Y.............
 1e80 00000000 00000000 00000000 00000000  ................
 1e90 00000002 00720000 00000000 00000000  .....r..........
 1ea0 00000000 00000003 0072c000 00000000  .........r......
 1eb0 00000000 00000000 00000000 02007800  ..............x.
 1ec0 00000000 00000000 00000000 00000000  ................
 1ed0 030072c0 00000000 00000000 00000000  ..r.............
 1ee0 00000000 00020072 00000000 00000000  .......r........
 1ef0 00000000 00000000 00020078 00000000  ...........x....
 1f00 00000000 00000000 00000000 00000000  ................
 1f10 00000000 00000000 00000000 0001005a  ...............Z
 1f20 00000000 00000000 00000000 00000000  ................
 1f30 01006300 00000000 00000000 00000000  ..c.............
 1f40 00000004 00f3015a 9f000000 00000000  .......Z........
 1f50 00000000 00000000 00010063 00000000  ...........c....
 1f60 00000000 00000000 00000000 00000000  ................
 1f70 00000000 00000000 00000000 0a000300  ................
 1f80 00000000 0000009f 00000000 00000000  ................
 1f90 00000000 00000000 01005900 00000000  ..........Y.....
 1fa0 00000000 00000000 00000001 00590000  .............Y..
 1fb0 00000000 00000000 00000000 00000000  ................
 1fc0 00000000 00000000 00000000 00000100  ................
 1fd0 5a000000 00000000 00000000 00000000  Z...............
 1fe0 0001005c 00000000 00000000 00000000  ...\............
 1ff0 00000000 01005a00 00000000 00000000  ......Z.........
 2000 00000000 00000001 005c0000 00000000  .........\......
 2010 00000000 00000000 00000000 00000000  ................
 2020 00000000 00000000 00002300 1080e0ff  ..........#.....
 2030 ffff0779 00030000 00000000 00001c0a  ...y............
 2040 68011b23 013d2408 20240820 261c9f00  h..#.=$. $. &...
 2050 00000000 00000000 00000000 00000023  ...............#
 2060 001080e0 ffffff07 79000300 00000000  ........y.......
 2070 0000001c 0a68011b 23013d24 08202408  .....h..#.=$. $.
 2080 20261c9f 00000000 00000000 00000000   &..............
 2090 00000000 00000000 00000000 00000000  ................
 20a0 00000000 02007200 00000000 00000000  ......r.........
 20b0 00000000 00000000 02007210 00000000  ..........r.....
 20c0 00000000 00000000 00000000 02007800  ..............x.
 20d0 00000000 00000000 00000000 00000000  ................
 20e0 02007210 00000000 00000000 00000000  ..r.............
 20f0 00000000 02007200 00000000 00000000  ......r.........
 2100 00000000 00000000 00000000 00000000  ................
 2110 00000000 00000000 02007200 00000000  ..........r.....
 2120 00000000 00000000 00000000 02007210  ..............r.
 2130 00000000 00000000 00000000 00000000  ................
 2140 02007800 00000000 00000000 00000000  ..x.............
 2150 00000000 02007210 00000000 00000000  ......r.........
 2160 00000000 00000000 02007200 00000000  ..........r.....
 2170 00000000 00000000 00000000 00000000  ................
 2180 00000000 00000000 00000000 01005f00  .............._.
 2190 00000000 00000000 00000000 00000000  ................
 21a0 00000000 00000000 00000000 00000015  ................
 21b0 007f0008 20240820 26372403 00000000  .... $. &7$.....
 21c0 00000000 229f0000 00000000 00000000  ...."...........
 21d0 00000000 0000                        ......          
Contents of section .debug_aranges:
 0000 2c000000 02000000 00000800 00000000  ,...............
 0010 00000000 00000000 00000000 00000000  ................
 0020 00000000 00000000 00000000 00000000  ................
Contents of section .debug_ranges:
 0000 00000000 00000000 00000000 00000000  ................
 0010 00000000 00000000 00000000 00000000  ................
 0020 00000000 00000000 00000000 00000000  ................
 0030 00000000 00000000 00000000 00000000  ................
 0040 00000000 00000000 00000000 00000000  ................
 0050 00000000 00000000 00000000 00000000  ................
 0060 00000000 00000000 00000000 00000000  ................
 0070 00000000 00000000 00000000 00000000  ................
 0080 00000000 00000000 00000000 00000000  ................
 0090 00000000 00000000 00000000 00000000  ................
 00a0 00000000 00000000 00000000 00000000  ................
 00b0 00000000 00000000 00000000 00000000  ................
 00c0 00000000 00000000 00000000 00000000  ................
 00d0 00000000 00000000 00000000 00000000  ................
Contents of section .debug_line:
 0000 1b180000 03005c00 00000101 fb0e0d00  ......\.........
 0010 01010101 00000001 0000016b 65726e65  ...........kerne
 0020 6c000070 726f632e 63000100 00726973  l..proc.c....ris
 0030 63762e68 00010000 74797065 732e6800  cv.h....types.h.
 0040 01000073 70696e6c 6f636b2e 68000100  ...spinlock.h...
 0050 0070726f 632e6800 01000064 6566732e  .proc.h....defs.
 0060 68000100 00000501 00090200 00000000  h...............
 0070 00000003 24010503 03010900 00010302  ....$...........
 0080 09000001 05130300 09000001 05090603  ................
 0090 00090000 01051103 04090000 01051303  ................
 00a0 7c090000 01050506 03010900 00010510  |...............
 00b0 06030009 00000105 05060301 09000001  ................
 00c0 05070603 00090000 01050500 02040206  ................
 00d0 03020900 00010002 04020301 09000001  ................
 00e0 05110002 04020603 7f090000 01050500  ................
 00f0 02040203 01090000 01052400 02040206  ..........$.....
 0100 037b0900 00010513 00020402 03000900  .{..............
 0110 00010501 06030709 00000105 0706037c  ...............|
 0120 09000001 05010309 09000001 05030301  ................
 0130 09000001 03020900 00010301 09000001  ................
 0140 03010900 00010513 03000900 00010509  ................
 0150 06030009 00000105 07030109 00000105  ................
 0160 13030209 00000103 7d090000 01050700  ........}.......
 0170 02040306 03010900 00010002 04030301  ................
 0180 09000001 05100002 04030603 00090000  ................
 0190 01050700 02040306 03010900 00010513  ................
 01a0 00020403 06030009 00000105 11000204  ................
 01b0 03030009 00000105 24000204 0306037d  ........$......}
 01c0 09000001 05130002 04030300 09000001  ................
 01d0 05010603 05090000 01060307 09000001  ................
 01e0 05030301 09000001 040203e9 01090000  ................
 01f0 01030109 00000103 01090000 01040103  ................
 0200 967e0900 00010501 06030109 00000106  .~..............
 0210 03060900 00010503 03010900 00010377  ...............w
 0220 09000001 040203e9 01090000 01030109  ................
 0230 00000103 01090000 01040103 967e0900  .............~..
 0240 00010309 09000001 03010900 0001050f  ................
 0250 06037f09 00000105 01030209 00000106  ................
 0260 03050900 00010503 03010900 00010301  ................
 0270 09000001 03760900 00010377 09000001  .....v.....w....
 0280 040203e9 01090000 01030109 00000103  ................
 0290 01090000 01040103 967e0900 00010309  .........~......
 02a0 09000001 03010900 00010309 09000001  ................
 02b0 05100603 00090000 01050306 03010900  ................
 02c0 00010301 09000001 05010603 01090000  ................
 02d0 010603e0 03090000 01050303 01090000  ................
 02e0 01030309 00000105 0c060300 09000001  ................
 02f0 05030300 09000001 06030209 00000105  ................
 0300 06060300 09000001 05030603 08090000  ................
 0310 01050106 03010900 00010505 06037b09  ..............{.
 0320 00000105 0b060300 09000001 05050603  ................
 0330 01090000 01050103 997c0900 00010503  .........|......
 0340 03010900 00010302 09000001 03010900  ................
 0350 00010507 06030009 00000105 03060301  ................
 0360 09000001 05150603 00090000 01050b03  ................
 0370 00090000 01050306 03010900 00010302  ................
 0380 09000001 05010603 01090000 010603cb  ................
 0390 00090000 01050303 01090000 01030309  ................
 03a0 00000105 0f060300 09000001 05030603  ................
 03b0 01090000 01050506 03000900 00010503  ................
 03c0 06030709 00000105 06060300 09000001  ................
 03d0 05050300 09000001 05030603 08090000  ................
 03e0 01050606 03000900 00010505 03000900  ................
 03f0 00010501 03080900 00010505 06037209  ..............r.
 0400 00000103 01090000 01050c06 03000900  ................
 0410 00010505 06030709 00000103 01090000  ................
 0420 01030109 00000105 0c060300 09000001  ................
 0430 05010603 0a090000 01050303 01090000  ................
 0440 01030109 00000103 01090000 01050106  ................
 0450 03010900 00010603 45090000 01050303  ........E.......
 0460 01090000 01050706 03000900 00010505  ................
 0470 03000900 00010603 01090000 01050303  ................
 0480 01090000 01051006 03000900 00010503  ................
 0490 06030109 00000105 07060300 09000001  ................
 04a0 05050300 09000001 06030109 00000105  ................
 04b0 03030109 00000105 10060300 09000001  ................
 04c0 05030603 01090000 01050906 03000900  ................
 04d0 00010503 06030109 00000105 0a060300  ................
 04e0 09000001 05030603 01090000 01050d06  ................
 04f0 03000900 00010503 06030109 00000105  ................
 0500 0e060300 09000001 05030603 01090000  ................
 0510 01050b06 03000900 00010503 06030109  ................
 0520 00000105 0d060300 09000001 05030603  ................
 0530 01090000 01050d06 03000900 00010503  ................
 0540 06030109 00000105 0c060300 09000001  ................
 0550 05010301 09000001 06034309 00000105  ..........C.....
 0560 03030109 00000103 02090000 01051303  ................
 0570 00090000 01050906 03000900 00010513  ................
 0580 03000900 00010505 06030109 00000103  ................
 0590 01090000 01050706 03000900 00010002  ................
 05a0 04020603 03090000 01052400 02040203  ..........$.....
 05b0 7b090000 01051300 02040203 00090000  {...............
 05c0 01050a06 03080900 00010507 06037b09  ..............{.
 05d0 00000105 03030809 00000105 0c060300  ................
 05e0 09000001 050a0300 09000001 05030603  ................
 05f0 01090000 01050c06 03000900 00010503  ................
 0600 06030309 00000105 2a060300 09000001  ........*.......
 0610 05140300 09000001 05050300 09000001  ................
 0620 05030603 07090000 01051206 03000900  ................
 0630 00010510 03000900 00010503 06030109  ................
 0640 00000105 05060300 09000001 05030603  ................
 0650 08090000 01030109 00000105 11060300  ................
 0660 09000001 05030603 01090000 01051d06  ................
 0670 03000900 00010511 03000900 00010503  ................
 0680 06030209 00000105 01060301 09000001  ................
 0690 05050603 6c090000 01030109 00000103  ....l...........
 06a0 01090000 01050c06 03000900 00010505  ................
 06b0 06030609 00000103 01090000 01030109  ................
 06c0 00000105 0c060300 09000001 05010603  ................
 06d0 de000900 00010503 03010900 00010302  ................
 06e0 09000001 05070603 00090000 01050306  ................
 06f0 03010900 0001050c 06030009 00000105  ................
 0700 03060304 09000001 03010900 00010509  ................
 0710 06030009 00000105 03060303 09000001  ................
 0720 05040603 00090000 01051503 00090000  ................
 0730 01050306 03010900 00010504 06030009  ................
 0740 00000105 14030009 00000105 03060302  ................
 0750 09000001 03010900 0001050c 06030009  ................
 0760 00000105 0a030009 00000105 03060302  ................
 0770 09000001 050c0603 00090000 01050306  ................
 0780 03020900 00010501 06030109 00000106  ................
 0790 03060900 00010503 03010900 00010301  ................
 07a0 09000001 05140603 00090000 01050306  ................
 07b0 03020900 00010506 06030009 00000105  ................
 07c0 03060301 09000001 05050603 00090000  ................
 07d0 01050a06 03040900 0001050c 06030009  ................
 07e0 00000105 03060303 09000001 05090603  ................
 07f0 00090000 01050306 03010900 0001050a  ................
 0800 06030009 00000105 01030109 00000105  ................
 0810 05060378 09000001 050e0603 00090000  ...x............
 0820 01050703 00090000 01050e03 01090000  ................
 0830 01050506 03030900 0001050a 06030009  ................
 0840 00000105 0106030a 09000001 05030301  ................
 0850 09000001 03010900 00010301 09000001  ................
 0860 05140603 00090000 01050306 03030900  ................
 0870 0001050c 06030009 00000105 05030009  ................
 0880 00000105 03060305 09000001 05060603  ................
 0890 00090000 01050503 00090000 01050306  ................
 08a0 03050900 0001050d 06030009 00000105  ................
 08b0 0a030009 00000105 03060303 09000001  ................
 08c0 05190603 00090000 01051403 00090000  ................
 08d0 01050306 03030900 00010505 06030009  ................
 08e0 00000105 15030009 00000105 03060303  ................
 08f0 09000001 05100300 09000001 05050373  ...............s
 0900 09000001 03010900 00010301 09000001  ................
 0910 050c0603 00090000 01051b00 02040206  ................
 0920 030b0900 00010510 00020402 03000900  ................
 0930 00010505 03010900 00010510 06030009  ................
 0940 00000105 07030009 00000106 03010900  ................
 0950 00010516 06030009 00000105 14030009  ................
 0960 00000105 03060301 09000001 050d0603  ................
 0970 00090000 01050b03 00090000 01050306  ................
 0980 03020900 00010302 09000001 05070603  ................
 0990 00090000 01050306 03020900 00010302  ................
 09a0 09000001 03010900 0001050e 06030009  ................
 09b0 00000105 03060301 09000001 03020900  ................
 09c0 00010301 09000001 050d0603 00090000  ................
 09d0 01050306 03010900 00010302 09000001  ................
 09e0 05010603 01090000 01050c03 5a090000  ............Z...
 09f0 01050106 03a90109 00000105 03030109  ................
 0a00 00000103 01090000 01030109 00000103  ................
 0a10 807d0900 00010377 09000001 040203e9  .}.....w........
 0a20 01090000 01030109 00000103 01090000  ................
 0a30 01040105 07060395 7e090000 01050306  ........~.......
 0a40 03010900 00010309 09000001 03010900  ................
 0a50 00010380 03090000 01050b06 03000900  ................
 0a60 00010509 03340900 00010511 037f0900  .....4..........
 0a70 00010513 035f0900 0001051b 030e0900  ....._..........
 0a80 00010503 06036109 00000105 05030209  ......a.........
 0a90 00000104 02050303 bc7e0900 000103a6  .........~......
 0aa0 7e090000 01030109 00000103 01090000  ~...............
 0ab0 01030609 00000106 03d20109 00000103  ................
 0ac0 ae7e0900 00010401 05050603 98030900  .~..............
 0ad0 00010517 03000900 0001050c 06030009  ................
 0ae0 00000105 29030209 00000105 39000204  ....).......9...
 0af0 02060300 09000001 051f0002 04020300  ................
 0b00 09000001 05090301 09000001 05160603  ................
 0b10 00090000 01050c03 00090000 01052d03  ..............-.
 0b20 00090000 01051303 0a090000 01051b03  ................
 0b30 01090000 01030d09 00000105 0b060373  ...............s
 0b40 09000001 051b0603 00090000 01050b06  ................
 0b50 03010900 00010519 06030009 00000105  ................
 0b60 09060303 09000001 03020900 00010302  ................
 0b70 09000001 050c0603 00090000 01051006  ................
 0b80 03030900 00010513 06030009 00000105  ................
 0b90 0b060302 09000001 05270603 00090000  .........'......
 0ba0 01050e03 00090000 01054b00 02040203  ..........K.....
 0bb0 00090000 01052d00 02040203 00090000  ......-.........
 0bc0 01056d00 02040303 00090000 01055200  ..m...........R.
 0bd0 02040303 00090000 01030009 00000105  ................
 0be0 38000204 02060371 09000001 051e0002  8......q........
 0bf0 04020300 09000001 05090301 09000001  ................
 0c00 05180603 00090000 01052a03 00090000  ..........*.....
 0c10 01050c03 00090000 01050906 03050900  ................
 0c20 00010302 09000001 050c0603 00090000  ................
 0c30 01052003 7e090000 01051203 00090000  .. .~...........
 0c40 01050706 030d0900 0001050a 06030009  ................
 0c50 00000105 09060301 09000001 051a0603  ................
 0c60 00090000 01051403 00090000 01050706  ................
 0c70 03050900 00010303 09000001 03010900  ................
 0c80 00010509 06030009 00000105 0706030c  ................
 0c90 09000001 03020900 00010511 00020401  ................
 0ca0 03000900 00010513 00020401 06030009  ................
 0cb0 00000105 0706036e 09000001 03030900  .......n........
 0cc0 00010301 09000001 05090603 00090000  ................
 0cd0 01050706 030c0900 00010302 09000001  ................
 0ce0 034e0900 0001050a 06030009 00000105  .N..............
 0cf0 29000204 0206037b 09000001 05170002  )......{........
 0d00 04020300 09000001 051f0302 09000001  ................
 0d10 05290603 00090000 01051f03 00090000  .)..............
 0d20 01052103 01090000 01050b03 7e090000  ..!.........~...
 0d30 01051003 01090000 01052d03 01090000  ..........-.....
 0d40 01050906 032a0900 00010512 06030009  .....*..........
 0d50 00000105 09060301 09000001 05110603  ................
 0d60 00090000 01050906 03010900 00010304  ................
 0d70 09000001 05110603 00090000 01050706  ................
 0d80 03020900 00010302 09000001 05090376  ...............v
 0d90 09000001 05120603 00090000 01050906  ................
 0da0 03010900 00010511 06030009 00000105  ................
 0db0 09060301 09000001 03040900 00010511  ................
 0dc0 06030009 00000105 07060302 09000001  ................
 0dd0 03020900 00010501 030f0900 00010503  ................
 0de0 03010900 00010301 09000001 05140603  ................
 0df0 00090000 01050306 03020900 00010507  ................
 0e00 06030009 00000105 05030009 00000105  ................
 0e10 03060302 09000001 03ad7c09 00000103  ..........|.....
 0e20 77090000 01040203 e9010900 00010301  w...............
 0e30 09000001 03010900 00010401 03967e09  ..............~.
 0e40 00000103 09090000 01030109 00000105  ................
 0e50 0d0603d1 03090000 01050503 00090000  ................
 0e60 01050306 03020900 00010505 06030009  ................
 0e70 00000105 03060302 09000001 040203f8  ................
 0e80 7d090000 0103987e 09000001 03010900  }......~........
 0e90 00010301 09000001 03e70109 00000105  ................
 0ea0 0d060300 09000001 04010505 03870209  ................
 0eb0 00000105 03060303 09000001 03a67c09  ..............|.
 0ec0 00000103 77090000 01040203 e9010900  ....w...........
 0ed0 00010301 09000001 03010900 00010401  ................
 0ee0 03967e09 00000103 09090000 01030109  ..~.............
 0ef0 00000105 0a0603d8 03090000 01050306  ................
 0f00 03010900 000103a5 7c090000 01037709  ........|.....w.
 0f10 00000104 0203e901 09000001 03010900  ................
 0f20 00010301 09000001 04010396 7e090000  ............~...
 0f30 01030909 00000103 01090000 010603d9  ................
 0f40 03090000 01060301 09000001 03a47c09  ..............|.
 0f50 00000103 77090000 01040203 e9010900  ....w...........
 0f60 00010301 09000001 03010900 00010401  ................
 0f70 03967e09 00000103 09090000 01030109  ..~.............
 0f80 00000105 130603da 03090000 01050103  ................
 0f90 01090000 01050506 03750900 00010302  .........u......
 0fa0 09000001 03020900 00010302 09000001  ................
 0fb0 0501030a 09000001 05030301 09000001  ................
 0fc0 05140603 00090000 01050306 03010900  ................
 0fd0 00010301 09000001 050c0603 00090000  ................
 0fe0 01050306 03010900 00010301 09000001  ................
 0ff0 05010603 01090000 0106031b 09000001  ................
 1000 05030301 09000001 05140603 00090000  ................
 1010 01050306 03090900 00010301 09000001  ................
 1020 03030900 0001050b 06030009 00000105  ................
 1030 03060301 09000001 050c0603 00090000  ................
 1040 01050306 03020900 00010303 09000001  ................
 1050 050b0603 00090000 01050306 03030900  ................
 1060 00010301 09000001 05010603 01090000  ................
 1070 01060306 09000001 05030301 09000001  ................
 1080 03020900 00010513 03000900 00010509  ................
 1090 06030009 00000103 03090000 01051203  ................
 10a0 01090000 01051303 7c090000 01050706  ........|.......
 10b0 03060900 00010524 00020402 037a0900  .......$.....z..
 10c0 00010513 00020402 03000900 00010505  ................
 10d0 03010900 0001050d 06030009 00000105  ................
 10e0 07030009 00000106 03010900 00010301  ................
 10f0 09000001 05090603 00090000 01051f00  ................
 1100 02040103 00090000 01050906 03010900  ................
 1110 00010512 06030009 00000105 01030509  ................
 1120 00000106 03d27d09 00000105 03030109  ......}.........
 1130 00000103 02090000 01051503 00090000  ................
 1140 01050a06 03000900 00010512 03020900  ................
 1150 00010515 037e0900 00010527 00020402  .....~.....'....
 1160 06030009 00000105 15000204 02030009  ................
 1170 00000105 05030109 00000105 07060300  ................
 1180 09000001 06030109 00000105 12060300  ................
 1190 09000001 05070603 01090000 01050106  ................
 11a0 03030900 00010603 07090000 01050303  ................
 11b0 01090000 01051406 03000900 00010503  ................
 11c0 06030209 00000105 05060300 09000001  ................
 11d0 06030109 00000105 07030509 00000103  ................
 11e0 01090000 01030109 00000105 14060300  ................
 11f0 09000001 05220002 04020603 7c090000  ....."......|...
 1200 01051600 02040203 00090000 01050503  ................
 1210 01090000 01051006 03000900 00010507  ................
 1220 03000900 00010503 06030709 00000103  ................
 1230 01090000 01030109 00000103 01090000  ................
 1240 01050a06 03000900 00010503 06030209  ................
 1250 00000103 03090000 01030309 00000103  ................
 1260 02090000 01030209 00000103 01090000  ................
 1270 01050703 00090000 01052a03 00090000  ..........*.....
 1280 01053406 03000900 0001052a 03000900  ..4........*....
 1290 00010517 03000900 00010507 037f0900  ................
 12a0 00010514 03060900 00010510 037e0900  .............~..
 12b0 00010534 037d0900 00010507 06030209  ...4.}..........
 12c0 00000103 01090000 01051006 03000900  ................
 12d0 00010505 06030209 00000105 0f000204  ................
 12e0 01030009 00000105 14000204 01060300  ................
 12f0 09000001 05440002 04020603 7b090000  .....D......{...
 1300 01052a00 02040203 00090000 01053400  ..*...........4.
 1310 02040206 03000900 0001052a 00020402  ...........*....
 1320 03000900 00010505 06030109 00000105  ................
 1330 12060300 09000001 05080300 09000001  ................
 1340 05050603 04090000 01050806 03000900  ................
 1350 00010503 06030309 00000105 0d060300  ................
 1360 09000001 05030603 01090000 01050c06  ................
 1370 03000900 00010503 06030209 00000103  ................
 1380 03090000 01030109 00000105 0103f701  ................
 1390 09000001 05030301 09000001 03020900  ................
 13a0 00010513 03000900 00010509 06030009  ................
 13b0 00000105 13030009 00000105 05060301  ................
 13c0 09000001 03010900 00010507 06030009  ................
 13d0 00000105 05000204 02060309 09000001  ................
 13e0 05240002 04020375 09000001 05130002  .$.....u........
 13f0 04020300 09000001 050a0603 0d090000  ................
 1400 01050706 03760900 00010511 06030009  .....v..........
 1410 00000105 07060301 09000001 05090603  ................
 1420 00090000 01050706 03040900 00010301  ................
 1430 09000001 050e0603 00090000 01050103  ................
 1440 05090000 01050906 03780900 00010512  .........x......
 1450 06030009 00000105 0106030c 09000001  ................
 1460 05030301 09000001 03010900 0001050d  ................
 1470 06030009 00000105 03060301 09000001  ................
 1480 05010603 01090000 01060304 09000001  ................
 1490 05030301 09000001 03020900 00010301  ................
 14a0 09000001 05050603 00090000 01050306  ................
 14b0 03010900 00010301 09000001 05010603  ................
 14c0 01090000 010603ec 7d090000 01050303  ........}.......
 14d0 01090000 01030109 00000103 01090000  ................
 14e0 01051406 03000900 00010503 06030209  ................
 14f0 00000105 0e060304 09000001 050b0307  ................
 1500 09000001 0512037f 09000001 0517037b  ...............{
 1510 09000001 0505031f 09000001 05030603  ................
 1520 5e090000 01050503 02090000 01030109  ^...............
 1530 00000105 17030009 00000105 0e06037f  ................
 1540 09000001 050c0301 09000001 050b0603  ................
 1550 08090000 01050f06 03000900 0001050b  ................
 1560 06030109 00000105 0d060300 09000001  ................
 1570 051b0002 04010300 09000001 05180002  ................
 1580 04010300 09000001 050b0603 06090000  ................
 1590 01030109 00000103 01090000 01030109  ................
 15a0 00000105 12060300 09000001 050d0603  ................
 15b0 79090000 01030109 00000103 01090000  y...............
 15c0 01051406 03000900 00010529 00020402  ...........)....
 15d0 06037309 00000105 17000204 02030009  ..s.............
 15e0 00000105 07030109 00000105 09060300  ................
 15f0 09000001 06030209 00000103 02090000  ................
 1600 01030109 00000105 0b060300 09000001  ................
 1610 05090603 0e090000 01051206 03710900  .............q..
 1620 00010505 06031409 00000105 07060300  ................
 1630 09000001 05150002 04010300 09000001  ................
 1640 05120002 04010300 09000001 05070603  ................
 1650 01090000 01030109 00000105 0e060300  ................
 1660 09000001 05010306 09000001 05050603  ................
 1670 7e090000 01050303 5e090000 01050e06  ~.......^.......
 1680 03020900 00010501 06039202 09000001  ................
 1690 05030301 09000001 05140603 00090000  ................
 16a0 01050306 03010900 00010505 06030009  ................
 16b0 00000106 03010900 0001050c 06030009  ................
 16c0 00000105 01030509 00000105 0506037d  ...............}
 16d0 09000001 03010900 0001050c 06030009  ................
 16e0 00000105 01060309 09000001 05030301  ................
 16f0 09000001 05140603 00090000 01050306  ................
 1700 03010900 00010505 06030009 00000106  ................
 1710 03010900 0001050c 06030009 00000105  ................
 1720 01030509 00000105 0506037d 09000001  ...........}....
 1730 03010900 0001050c 06030009 00000105  ................
 1740 01060309 09000001 05030301 09000001  ................
 1750 03080900 00010301 09000001 03020900  ................
 1760 00010301 09000001 05130300 09000001  ................
 1770 05070603 03090000 01050d03 03090000  ................
 1780 01050503 01090000 01030109 00000105  ................
 1790 3b037b09 00000105 05060304 09000001  ;.{.............
 17a0 03010900 00010524 00020402 03780900  .......$.....x..
 17b0 00010513 00020402 03000900 00010505  ................
 17c0 03010900 00010509 06030009 00000105  ................
 17d0 07030009 00000105 05060302 09000001  ................
 17e0 050d0603 03090000 01050703 7d090000  ............}...
 17f0 01053b00 02040103 00090000 01053200  ..;...........2.
 1800 02040103 00090000 01050d03 03090000  ................
 1810 01050103 04090000 01090000 000101    ............... 
Contents of section .debug_str:
 0000 7072696e 74660075 766d6372 65617465  printf.uvmcreate
 0010 00666f72 6b726574 00736368 65640075  .forkret.sched.u
 0020 766d756e 6d617000 73636865 64756c65  vmunmap.schedule
 0030 72006d69 6e5f6465 61646c69 6e65006b  r.min_deadline.k
 0040 65726e65 6c5f7361 74700070 6572696f  ernel_satp.perio
 0050 64006673 696e6974 00796965 6c640067  d.fsinit.yield.g
 0060 726f7770 726f6300 75766d64 65616c6c  rowproc.uvmdeall
 0070 6f630077 6169745f 6c6f636b 006e6578  oc.wait_lock.nex
 0080 7400534c 45455049 4e470073 65746b69  t.SLEEPING.setki
 0090 6c6c6564 002f686f 6d652f6b 61792f78  lled./home/kay/x
 00a0 76362d72 69736376 2d736e75 00737069  v6-riscv-snu.spi
 00b0 6e6c6f63 6b006164 64720070 6f705f6f  nlock.addr.pop_o
 00c0 66660077 61697400 70617265 6e740073  ff.wait.parent.s
 00d0 74617465 00737774 63680070 616e6963  tate.swtch.panic
 00e0 006b696c 6c007072 6f635f66 72656570  .kill.proc_freep
 00f0 61676574 61626c65 0072745f 70726f63  agetable.rt_proc
 0100 0066696c 65647570 006b6572 6e656c2f  .filedup.kernel/
 0110 70726f63 2e630069 6e697470 726f6300  proc.c.initproc.
 0120 7472616d 706f6c69 6e650075 766d636f  trampoline.uvmco
 0130 7079006b 66726565 00666f72 6b006569  py.kfree.fork.ei
 0140 74686572 5f636f70 796f7574 00697075  ther_copyout.ipu
 0150 7400696e 74725f6f 6e005553 45440075  t.intr_on.USED.u
 0160 6e736967 6e656420 696e7400 77616b65  nsigned int.wake
 0170 75700063 6f70796f 75740070 61676574  up.copyout.paget
 0180 61626c65 5f740070 726f6300 6c6f6e67  able_t.proc.long
 0190 20756e73 69676e65 6420696e 74006163   unsigned int.ac
 01a0 71756972 65007072 6f635f70 61676574  quire.proc_paget
 01b0 61626c65 00757365 725f6473 74006e61  able.user_dst.na
 01c0 6d650052 554e4e41 424c4500 636f7079  me.RUNNABLE.copy
 01d0 696e0073 686f7274 20756e73 69676e65  in.short unsigne
 01e0 6420696e 74006b65 726e656c 5f747261  d int.kernel_tra
 01f0 7000736c 65657000 72657061 72656e74  p.sleep.reparent
 0200 00757365 725f7372 63006f66 696c6500  .user_src.ofile.
 0210 474e5520 43313720 31312e34 2e30202d  GNU C17 11.4.0 -
 0220 6d636d6f 64656c3d 6d656461 6e79202d  mcmodel=medany -
 0230 6d6e6f2d 72656c61 78202d6d 6162693d  mno-relax -mabi=
 0240 6c703634 64202d6d 6973612d 73706563  lp64d -misa-spec
 0250 3d322e32 202d6d61 7263683d 72763634  =2.2 -march=rv64
 0260 696d6166 6463202d 67676462 202d6764  imafdc -ggdb -gd
 0270 77617266 2d32202d 4f202d66 6e6f2d6f  warf-2 -O -fno-o
 0280 6d69742d 6672616d 652d706f 696e7465  mit-frame-pointe
 0290 72202d66 66726565 7374616e 64696e67  r -ffreestanding
 02a0 202d666e 6f2d636f 6d6d6f6e 202d666e   -fno-common -fn
 02b0 6f2d7374 61636b2d 70726f74 6563746f  o-stack-protecto
 02c0 72202d66 6e6f2d70 69650069 64757000  r -fno-pie.idup.
 02d0 6d796370 75007072 6f635f6d 61707374  mycpu.proc_mapst
 02e0 61636b73 006b696c 6c656400 554e5553  acks.killed.UNUS
 02f0 45440070 726f6373 74617465 00686176  ED.procstate.hav
 0300 656b6964 73006b65 726e656c 5f737000  ekids.kernel_sp.
 0310 74726170 6672616d 65005a4f 4d424945  trapframe.ZOMBIE
 0320 00746963 6b730073 74617274 5f746963  .ticks.start_tic
 0330 6b00725f 74700061 6c6c6f63 70726f63  k.r_tp.allocproc
 0340 006c6f63 6b656400 70726f63 64756d70  .locked.procdump
 0350 00757365 72696e69 74006d79 70726f63  .userinit.myproc
 0360 00756368 61720065 69746865 725f636f  .uchar.either_co
 0370 7079696e 006e5f72 745f7072 6f630073  pyin.n_rt_proc.s
 0380 61666573 74726370 79006b70 6774626c  afestrcpy.kpgtbl
 0390 006d6170 70616765 73007569 6e740069  .mappages.uint.i
 03a0 6e6f6465 0075766d 66697273 74006b73  node.uvmfirst.ks
 03b0 7461636b 00696e69 746c6f63 6b007061  tack.initlock.pa
 03c0 67657461 626c6500 756e7369 676e6564  getable.unsigned
 03d0 20636861 72007873 74617465 00667265   char.xstate.fre
 03e0 6570726f 63007569 6e743634 0066696c  eproc.uint64.fil
 03f0 6500696e 74656e61 0075766d 616c6c6f  e.intena.uvmallo
 0400 63005255 4e4e494e 47006e61 6d656900  c.RUNNING.namei.
 0410 65786974 0066696e 69736865 6400696e  exit.finished.in
 0420 6974636f 64650066 69727374 00636861  itcode.first.cha
 0430 6e006c6f 636b0063 68617200 6b616c6c  n.lock.char.kall
 0440 6f630073 74617465 73007265 63656e74  oc.states.recent
 0450 5f727470 00696e74 725f6765 74006465  _rtp.intr_get.de
 0460 61646c69 6e650066 696c6563 6c6f7365  adline.fileclose
 0470 00707573 685f6f66 6600636f 6e746578  .push_off.contex
 0480 74007069 645f6c6f 636b0061 6c6c6f63  t.pid_lock.alloc
 0490 70696400 686f6c64 696e6700 70726f63  pid.holding.proc
 04a0 696e6974 0072656c 65617365 00666f75  init.release.fou
 04b0 6e640065 6e645f6f 70006b76 6d6d6170  nd.end_op.kvmmap
 04c0 006d656d 73657400 73746174 75730075  .memset.status.u
 04d0 766d6672 65650077 5f737374 61747573  vmfree.w_sstatus
 04e0 006d656d 6d6f7665 00725f73 73746174  .memmove.r_sstat
 04f0 75730062 6567696e 5f6f7000 666c6167  us.begin_op.flag
 0500 006e6f66 66006b65 726e656c 5f686172  .noff.kernel_har
 0510 74696400 63707573 006e6578 74706964  tid.cpus.nextpid
 0520 00757365 72747261 70726574 0072756e  .usertrapret.run
 0530 74696d65 00637075 696400             time.cpuid.     
Contents of section .comment:
 0000 00474343 3a202855 62756e74 75203131  .GCC: (Ubuntu 11
 0010 2e342e30 2d317562 756e7475 317e3232  .4.0-1ubuntu1~22
 0020 2e303429 2031312e 342e3000           .04) 11.4.0.    
Contents of section .debug_frame:
 0000 0c000000 ffffffff 0300017c 010d0200  ...........|....
 0010 4c000000 00000000 00000000 00000000  L...............
 0020 00000000 00000000 420e4050 81028804  ........B.@P....
 0030 89069208 930a940c 950e9610 420c0800  ............B...
 0040 02600ac1 42c80c02 4042c942 d242d342  .`..B...@B.B.B.B
 0050 d442d542 d6420e00 420b0000 00000000  .B.B.B..B.......
 0060 44000000 00000000 00000000 00000000  D...............
 0070 00000000 00000000 420e4050 81028804  ........B.@P....
 0080 89069208 930a940c 950e9610 420c0800  ............B...
 0090 028ec142 c80c0240 42c942d2 42d342d4  ...B...@B.B.B.B.
 00a0 42d542d6 420e0000 2c000000 00000000  B.B.B...,.......
 00b0 00000000 00000000 00000000 00000000  ................
 00c0 420e1042 8802420c 080046c8 0c021042  B..B..B...F....B
 00d0 0e000000 00000000 2c000000 00000000  ........,.......
 00e0 00000000 00000000 00000000 00000000  ................
 00f0 420e1042 8802420c 080052c8 0c021042  B..B..B...R....B
 0100 0e000000 00000000 34000000 00000000  ........4.......
 0110 00000000 00000000 00000000 00000000  ................
 0120 420e2046 81028804 8906420c 080066c1  B. F......B...f.
 0130 42c80c02 2042c942 0e000000 00000000  B... B.B........
 0140 34000000 00000000 00000000 00000000  4...............
 0150 00000000 00000000 420e1044 81028804  ........B..D....
 0160 420c0800 640ac142 c80c0210 420e0042  B...d..B....B..B
 0170 0b000000 00000000 34000000 00000000  ........4.......
 0180 00000000 00000000 00000000 00000000  ................
 0190 420e2048 81028804 89069208 420c0800  B. H........B...
 01a0 70c142c8 0c022042 c942d242 0e000000  p.B... B.B.B....
 01b0 3c000000 00000000 00000000 00000000  <...............
 01c0 00000000 00000000 420e2048 81028804  ........B. H....
 01d0 89069208 420c0800 02500ac1 42c80c02  ....B....P..B...
 01e0 2042c942 d2420e00 420b0000 00000000   B.B.B..B.......
 01f0 34000000 00000000 00000000 00000000  4...............
 0200 00000000 00000000 420e2048 81028804  ........B. H....
 0210 89069208 420c0800 7cc142c8 0c022042  ....B...|.B... B
 0220 c942d242 0e000000 34000000 00000000  .B.B....4.......
 0230 00000000 00000000 00000000 00000000  ................
 0240 420e2046 81028804 8906420c 08000246  B. F......B....F
 0250 c142c80c 022042c9 420e0000 00000000  .B... B.B.......
 0260 3c000000 00000000 00000000 00000000  <...............
 0270 00000000 00000000 420e2048 81028804  ........B. H....
 0280 89069208 420c0800 02880ac1 42c80c02  ....B.......B...
 0290 2042c942 d2420e00 420b0000 00000000   B.B.B..B.......
 02a0 34000000 00000000 00000000 00000000  4...............
 02b0 00000000 00000000 420e2046 81028804  ........B. F....
 02c0 8906420c 08000270 c142c80c 022042c9  ..B....p.B... B.
 02d0 420e0000 00000000 3c000000 00000000  B.......<.......
 02e0 00000000 00000000 00000000 00000000  ................
 02f0 420e2048 81028804 89069208 420c0800  B. H........B...
 0300 5c0ac142 c80c0220 42c942d2 420e0042  \..B... B.B.B..B
 0310 0b000000 00000000 44000000 00000000  ........D.......
 0320 00000000 00000000 00000000 00000000  ................
 0330 420e404e 81028804 89069208 930a940c  B.@N............
 0340 950e420c 0800031a 010ac142 c80c0240  ..B........B...@
 0350 42c942d2 42d342d4 42d5420e 00420b00  B.B.B.B.B.B..B..
 0360 34000000 00000000 00000000 00000000  4...............
 0370 00000000 00000000 420e5054 81028804  ........B.PT....
 0380 89069208 930a940c 950e9610 97129814  ................
 0390 420c0800 00000000 3c000000 00000000  B.......<.......
 03a0 00000000 00000000 00000000 00000000  ................
 03b0 420e304a 81028804 89069208 930a420c  B.0J..........B.
 03c0 0800027c 0ac142c8 0c023042 c942d242  ...|..B...0B.B.B
 03d0 d3420e00 420b0000 34000000 00000000  .B..B...4.......
 03e0 00000000 00000000 00000000 00000000  ................
 03f0 420e2046 81028804 8906420c 08006ac1  B. F......B...j.
 0400 42c80c02 2042c942 0e000000 00000000  B... B.B........
 0410 3c000000 00000000 00000000 00000000  <...............
 0420 00000000 00000000 420e304a 81028804  ........B.0J....
 0430 89069208 930a420c 0800024a c142c80c  ......B....J.B..
 0440 023042c9 42d242d3 420e0000 00000000  .0B.B.B.B.......
 0450 44000000 00000000 00000000 00000000  D...............
 0460 00000000 00000000 420e404e 81028804  ........B.@N....
 0470 89069208 930a940c 950e420c 08000254  ..........B....T
 0480 c142c80c 024042c9 42d242d3 42d442d5  .B...@B.B.B.B.B.
 0490 420e0000 00000000 3c000000 00000000  B.......<.......
 04a0 00000000 00000000 00000000 00000000  ................
 04b0 420e304c 81028804 89069208 930a940c  B.0L............
 04c0 420c0800 7cc142c8 0c023042 c942d242  B...|.B...0B.B.B
 04d0 d342d442 0e000000 2c000000 00000000  .B.B....,.......
 04e0 00000000 00000000 00000000 00000000  ................
 04f0 420e304c 81028804 89069208 930a940c  B.0L............
 0500 420c0800 00000000 3c000000 00000000  B.......<.......
 0510 00000000 00000000 00000000 00000000  ................
 0520 420e304a 81028804 89069208 930a420c  B.0J..........B.
 0530 08000252 0ac142c8 0c023042 c942d242  ...R..B...0B.B.B
 0540 d3420e00 420b0000 34000000 00000000  .B..B...4.......
 0550 00000000 00000000 00000000 00000000  ................
 0560 420e2046 81028804 8906420c 08005ac1  B. F......B...Z.
 0570 42c80c02 2042c942 0e000000 00000000  B... B.B........
 0580 34000000 00000000 00000000 00000000  4...............
 0590 00000000 00000000 420e2048 81028804  ........B. H....
 05a0 89069208 420c0800 5cc142c8 0c022042  ....B...\.B... B
 05b0 c942d242 0e000000 54000000 00000000  .B.B....T.......
 05c0 00000000 00000000 00000000 00000000  ................
 05d0 420e5054 81028804 89069208 930a940c  B.PT............
 05e0 950e9610 97129814 420c0800 02f20ac1  ........B.......
 05f0 42c80c02 5042c942 d242d342 d442d542  B...PB.B.B.B.B.B
 0600 d642d742 d8420e00 420b0000 00000000  .B.B.B..B.......
 0610 44000000 00000000 00000000 00000000  D...............
 0620 00000000 00000000 420e304c 81028804  ........B.0L....
 0630 89069208 930a940c 420c0800 640ac142  ........B...d..B
 0640 c80c0230 42c942d2 42d342d4 420e0042  ...0B.B.B.B.B..B
 0650 0b000000 00000000 44000000 00000000  ........D.......
 0660 00000000 00000000 00000000 00000000  ................
 0670 420e304c 81028804 89069208 930a940c  B.0L............
 0680 420c0800 640ac142 c80c0230 42c942d2  B...d..B...0B.B.
 0690 42d342d4 420e0042 0b000000 00000000  B.B.B..B........
 06a0 4c000000 00000000 00000000 00000000  L...............
 06b0 00000000 00000000 420e5052 81028804  ........B.PR....
 06c0 89069208 930a940c 950e9610 9712420c  ..............B.
 06d0 08000286 c142c80c 025042c9 42d242d3  .....B...PB.B.B.
 06e0 42d442d5 42d642d7 420e0000 00000000  B.B.B.B.B.......
Contents of section .riscv.attributes:
 0000 41360000 00726973 63760001 2c000000  A6...riscv..,...
 0010 05727636 34693270 305f6d32 70305f61  .rv64i2p0_m2p0_a
 0020 3270305f 66327030 5f643270 305f6332  2p0_f2p0_d2p0_c2
 0030 70300008 010a0b                      p0.....         

Disassembly of section .text:

0000000000000000 <proc_mapstacks>:
// Allocate a page for each process's kernel stack.
// Map it high in memory, followed by an invalid
// guard page.
void
proc_mapstacks(pagetable_t kpgtbl)
{
   0:	7139                	addi	sp,sp,-64

0000000000000002 <.LCFI0>:
   2:	fc06                	sd	ra,56(sp)
   4:	f822                	sd	s0,48(sp)
   6:	f426                	sd	s1,40(sp)
   8:	f04a                	sd	s2,32(sp)
   a:	ec4e                	sd	s3,24(sp)
   c:	e852                	sd	s4,16(sp)
   e:	e456                	sd	s5,8(sp)
  10:	e05a                	sd	s6,0(sp)
  12:	0080                	addi	s0,sp,64

0000000000000014 <.LCFI1>:
  14:	89aa                	mv	s3,a0

0000000000000016 <.LVL1>:
  struct proc *p;
  
  for(p = proc; p < &proc[NPROC]; p++) {
  16:	00000497          	auipc	s1,0x0
  1a:	00048493          	mv	s1,s1

000000000000001e <.LBB21>:
    char *pa = kalloc();
    if(pa == 0)
      panic("kalloc");
    uint64 va = KSTACK((int) (p - proc));
  1e:	8b26                	mv	s6,s1
  20:	00000a97          	auipc	s5,0x0
  24:	000a8a93          	mv	s5,s5
  28:	04000937          	lui	s2,0x4000
  2c:	197d                	addi	s2,s2,-1 # 3ffffff <.LLST10+0x3ffde60>
  2e:	0932                	slli	s2,s2,0xc

0000000000000030 <.LBE21>:
  for(p = proc; p < &proc[NPROC]; p++) {
  30:	00000a17          	auipc	s4,0x0
  34:	000a0a13          	mv	s4,s4

0000000000000038 <.L3>:
    char *pa = kalloc();
  38:	00000097          	auipc	ra,0x0
  3c:	000080e7          	jalr	ra # 38 <.L3>

0000000000000040 <.LVL3>:
  40:	862a                	mv	a2,a0

0000000000000042 <.LVL4>:
    if(pa == 0)
  42:	c131                	beqz	a0,86 <.L6>

0000000000000044 <.LVL5>:
    uint64 va = KSTACK((int) (p - proc));
  44:	416485b3          	sub	a1,s1,s6
  48:	858d                	srai	a1,a1,0x3
  4a:	000ab783          	ld	a5,0(s5) # 20 <.LBB21+0x2>
  4e:	02f585b3          	mul	a1,a1,a5
  52:	2585                	addiw	a1,a1,1
  54:	00d5959b          	slliw	a1,a1,0xd
    kvmmap(kpgtbl, va, (uint64)pa, PGSIZE, PTE_R | PTE_W);
  58:	4719                	li	a4,6
  5a:	6685                	lui	a3,0x1
  5c:	40b905b3          	sub	a1,s2,a1
  60:	854e                	mv	a0,s3

0000000000000062 <.LVL6>:
  62:	00000097          	auipc	ra,0x0
  66:	000080e7          	jalr	ra # 62 <.LVL6>

000000000000006a <.LBE22>:
  for(p = proc; p < &proc[NPROC]; p++) {
  6a:	16848493          	addi	s1,s1,360 # 17e <.LCFI17+0x6>

000000000000006e <.LVL8>:
  6e:	fd4495e3          	bne	s1,s4,38 <.L3>
  }
}
  72:	70e2                	ld	ra,56(sp)
  74:	7442                	ld	s0,48(sp)

0000000000000076 <.LCFI2>:
  76:	74a2                	ld	s1,40(sp)

0000000000000078 <.LVL9>:
  78:	7902                	ld	s2,32(sp)
  7a:	69e2                	ld	s3,24(sp)

000000000000007c <.LVL10>:
  7c:	6a42                	ld	s4,16(sp)
  7e:	6aa2                	ld	s5,8(sp)
  80:	6b02                	ld	s6,0(sp)
  82:	6121                	addi	sp,sp,64

0000000000000084 <.LCFI3>:
  84:	8082                	ret

0000000000000086 <.L6>:
      panic("kalloc");
  86:	00000517          	auipc	a0,0x0
  8a:	00050513          	mv	a0,a0

000000000000008e <.LVL12>:
  8e:	00000097          	auipc	ra,0x0
  92:	000080e7          	jalr	ra # 8e <.LVL12>

0000000000000096 <procinit>:

// initialize the proc table.
void
procinit(void)
{
  96:	7139                	addi	sp,sp,-64

0000000000000098 <.LCFI5>:
  98:	fc06                	sd	ra,56(sp)
  9a:	f822                	sd	s0,48(sp)
  9c:	f426                	sd	s1,40(sp)
  9e:	f04a                	sd	s2,32(sp)
  a0:	ec4e                	sd	s3,24(sp)
  a2:	e852                	sd	s4,16(sp)
  a4:	e456                	sd	s5,8(sp)
  a6:	e05a                	sd	s6,0(sp)
  a8:	0080                	addi	s0,sp,64

00000000000000aa <.LCFI6>:
  struct proc *p;
  
  initlock(&pid_lock, "nextpid");
  aa:	00000597          	auipc	a1,0x0
  ae:	00058593          	mv	a1,a1
  b2:	00000517          	auipc	a0,0x0
  b6:	00050513          	mv	a0,a0
  ba:	00000097          	auipc	ra,0x0
  be:	000080e7          	jalr	ra # ba <.LCFI6+0x10>

00000000000000c2 <.LVL14>:
  initlock(&wait_lock, "wait_lock");
  c2:	00000597          	auipc	a1,0x0
  c6:	00058593          	mv	a1,a1
  ca:	00000517          	auipc	a0,0x0
  ce:	00050513          	mv	a0,a0
  d2:	00000097          	auipc	ra,0x0
  d6:	000080e7          	jalr	ra # d2 <.LVL14+0x10>

00000000000000da <.LVL15>:
  for(p = proc; p < &proc[NPROC]; p++) {
  da:	00000497          	auipc	s1,0x0
  de:	00048493          	mv	s1,s1
      initlock(&p->lock, "proc");
  e2:	00000b17          	auipc	s6,0x0
  e6:	000b0b13          	mv	s6,s6
      p->state = UNUSED;
      p->kstack = KSTACK((int) (p - proc));
  ea:	8aa6                	mv	s5,s1
  ec:	00000a17          	auipc	s4,0x0
  f0:	000a0a13          	mv	s4,s4
  f4:	04000937          	lui	s2,0x4000
  f8:	197d                	addi	s2,s2,-1 # 3ffffff <.LLST10+0x3ffde60>
  fa:	0932                	slli	s2,s2,0xc
  for(p = proc; p < &proc[NPROC]; p++) {
  fc:	00000997          	auipc	s3,0x0
 100:	00098993          	mv	s3,s3

0000000000000104 <.L8>:
      initlock(&p->lock, "proc");
 104:	85da                	mv	a1,s6
 106:	8526                	mv	a0,s1
 108:	00000097          	auipc	ra,0x0
 10c:	000080e7          	jalr	ra # 108 <.L8+0x4>

0000000000000110 <.LVL17>:
      p->state = UNUSED;
 110:	0004ac23          	sw	zero,24(s1) # f2 <.LVL15+0x18>
      p->kstack = KSTACK((int) (p - proc));
 114:	415487b3          	sub	a5,s1,s5
 118:	878d                	srai	a5,a5,0x3
 11a:	000a3703          	ld	a4,0(s4) # ec <.LVL15+0x12>
 11e:	02e787b3          	mul	a5,a5,a4
 122:	2785                	addiw	a5,a5,1
 124:	00d7979b          	slliw	a5,a5,0xd
 128:	40f907b3          	sub	a5,s2,a5
 12c:	e0bc                	sd	a5,64(s1)
  for(p = proc; p < &proc[NPROC]; p++) {
 12e:	16848493          	addi	s1,s1,360
 132:	fd3499e3          	bne	s1,s3,104 <.L8>
  }
}
 136:	70e2                	ld	ra,56(sp)
 138:	7442                	ld	s0,48(sp)

000000000000013a <.LCFI7>:
 13a:	74a2                	ld	s1,40(sp)

000000000000013c <.LVL19>:
 13c:	7902                	ld	s2,32(sp)
 13e:	69e2                	ld	s3,24(sp)
 140:	6a42                	ld	s4,16(sp)
 142:	6aa2                	ld	s5,8(sp)
 144:	6b02                	ld	s6,0(sp)
 146:	6121                	addi	sp,sp,64

0000000000000148 <.LCFI8>:
 148:	8082                	ret

000000000000014a <cpuid>:
// Must be called with interrupts disabled,
// to prevent race with process being moved
// to a different CPU.
int
cpuid()
{
 14a:	1141                	addi	sp,sp,-16

000000000000014c <.LCFI9>:
 14c:	e422                	sd	s0,8(sp)
 14e:	0800                	addi	s0,sp,16

0000000000000150 <.LBB26>:
// this core's hartid (core number), the index into cpus[].
static inline uint64
r_tp()
{
  uint64 x;
  asm volatile("mv %0, tp" : "=r" (x) );
 150:	8512                	mv	a0,tp

0000000000000152 <.LBE26>:
  int id = r_tp();
  return id;
}
 152:	2501                	sext.w	a0,a0
 154:	6422                	ld	s0,8(sp)

0000000000000156 <.LCFI11>:
 156:	0141                	addi	sp,sp,16

0000000000000158 <.LCFI12>:
 158:	8082                	ret

000000000000015a <mycpu>:

// Return this CPU's cpu struct.
// Interrupts must be disabled.
struct cpu*
mycpu(void)
{
 15a:	1141                	addi	sp,sp,-16

000000000000015c <.LCFI13>:
 15c:	e422                	sd	s0,8(sp)
 15e:	0800                	addi	s0,sp,16

0000000000000160 <.LBB32>:
 160:	8792                	mv	a5,tp

0000000000000162 <.LBE32>:
  int id = cpuid();
  struct cpu *c = &cpus[id];
 162:	2781                	sext.w	a5,a5
 164:	079e                	slli	a5,a5,0x7

0000000000000166 <.LVL22>:
  return c;
}
 166:	00000517          	auipc	a0,0x0
 16a:	00050513          	mv	a0,a0
 16e:	953e                	add	a0,a0,a5
 170:	6422                	ld	s0,8(sp)

0000000000000172 <.LCFI15>:
 172:	0141                	addi	sp,sp,16

0000000000000174 <.LCFI16>:
 174:	8082                	ret

0000000000000176 <myproc>:

// Return the current struct proc *, or zero if none.
struct proc*
myproc(void)
{
 176:	1101                	addi	sp,sp,-32

0000000000000178 <.LCFI17>:
 178:	ec06                	sd	ra,24(sp)
 17a:	e822                	sd	s0,16(sp)
 17c:	e426                	sd	s1,8(sp)
 17e:	1000                	addi	s0,sp,32

0000000000000180 <.LCFI18>:
  push_off();
 180:	00000097          	auipc	ra,0x0
 184:	000080e7          	jalr	ra # 180 <.LCFI18>

0000000000000188 <.LBB42>:
 188:	8792                	mv	a5,tp

000000000000018a <.LBE42>:
  struct cpu *c = mycpu();
  struct proc *p = c->proc;
 18a:	2781                	sext.w	a5,a5
 18c:	079e                	slli	a5,a5,0x7

000000000000018e <.LVL25>:
 18e:	00000717          	auipc	a4,0x0
 192:	00070713          	mv	a4,a4
 196:	97ba                	add	a5,a5,a4
 198:	7b84                	ld	s1,48(a5)

000000000000019a <.LVL26>:
  pop_off();
 19a:	00000097          	auipc	ra,0x0
 19e:	000080e7          	jalr	ra # 19a <.LVL26>

00000000000001a2 <.LVL27>:
  return p;
}
 1a2:	8526                	mv	a0,s1
 1a4:	60e2                	ld	ra,24(sp)
 1a6:	6442                	ld	s0,16(sp)

00000000000001a8 <.LCFI19>:
 1a8:	64a2                	ld	s1,8(sp)

00000000000001aa <.LVL28>:
 1aa:	6105                	addi	sp,sp,32

00000000000001ac <.LCFI20>:
 1ac:	8082                	ret

00000000000001ae <forkret>:

// A fork child's very first scheduling by scheduler()
// will swtch to forkret.
void
forkret(void)
{
 1ae:	1141                	addi	sp,sp,-16

00000000000001b0 <.LCFI21>:
 1b0:	e406                	sd	ra,8(sp)
 1b2:	e022                	sd	s0,0(sp)
 1b4:	0800                	addi	s0,sp,16

00000000000001b6 <.LCFI22>:
  static int first = 1;

  // Still holding p->lock from scheduler.
  release(&myproc()->lock);
 1b6:	00000097          	auipc	ra,0x0
 1ba:	000080e7          	jalr	ra # 1b6 <.LCFI22>

00000000000001be <.LVL29>:
 1be:	00000097          	auipc	ra,0x0
 1c2:	000080e7          	jalr	ra # 1be <.LVL29>

00000000000001c6 <.LVL30>:

  if (first) {
 1c6:	00000797          	auipc	a5,0x0
 1ca:	0007a783          	lw	a5,0(a5) # 1c6 <.LVL30>
 1ce:	eb89                	bnez	a5,1e0 <.L20>

00000000000001d0 <.L18>:
    // be run from main().
    first = 0;
    fsinit(ROOTDEV);
  }

  usertrapret();
 1d0:	00000097          	auipc	ra,0x0
 1d4:	000080e7          	jalr	ra # 1d0 <.L18>

00000000000001d8 <.LVL31>:
}
 1d8:	60a2                	ld	ra,8(sp)
 1da:	6402                	ld	s0,0(sp)

00000000000001dc <.LCFI23>:
 1dc:	0141                	addi	sp,sp,16

00000000000001de <.LCFI24>:
 1de:	8082                	ret

00000000000001e0 <.L20>:
    first = 0;
 1e0:	00000797          	auipc	a5,0x0
 1e4:	0007a023          	sw	zero,0(a5) # 1e0 <.L20>
    fsinit(ROOTDEV);
 1e8:	4505                	li	a0,1
 1ea:	00000097          	auipc	ra,0x0
 1ee:	000080e7          	jalr	ra # 1ea <.L20+0xa>

00000000000001f2 <.LVL32>:
 1f2:	bff9                	j	1d0 <.L18>

00000000000001f4 <allocpid>:
{
 1f4:	1101                	addi	sp,sp,-32

00000000000001f6 <.LCFI26>:
 1f6:	ec06                	sd	ra,24(sp)
 1f8:	e822                	sd	s0,16(sp)
 1fa:	e426                	sd	s1,8(sp)
 1fc:	e04a                	sd	s2,0(sp)
 1fe:	1000                	addi	s0,sp,32

0000000000000200 <.LCFI27>:
  acquire(&pid_lock);
 200:	00000917          	auipc	s2,0x0
 204:	00090913          	mv	s2,s2
 208:	854a                	mv	a0,s2
 20a:	00000097          	auipc	ra,0x0
 20e:	000080e7          	jalr	ra # 20a <.LCFI27+0xa>

0000000000000212 <.LVL33>:
  pid = nextpid;
 212:	00000797          	auipc	a5,0x0
 216:	00078793          	mv	a5,a5
 21a:	4384                	lw	s1,0(a5)

000000000000021c <.LVL34>:
  nextpid = nextpid + 1;
 21c:	0014871b          	addiw	a4,s1,1
 220:	c398                	sw	a4,0(a5)
  release(&pid_lock);
 222:	854a                	mv	a0,s2
 224:	00000097          	auipc	ra,0x0
 228:	000080e7          	jalr	ra # 224 <.LVL34+0x8>

000000000000022c <.LVL35>:
}
 22c:	8526                	mv	a0,s1
 22e:	60e2                	ld	ra,24(sp)
 230:	6442                	ld	s0,16(sp)

0000000000000232 <.LCFI28>:
 232:	64a2                	ld	s1,8(sp)

0000000000000234 <.LVL36>:
 234:	6902                	ld	s2,0(sp)
 236:	6105                	addi	sp,sp,32

0000000000000238 <.LCFI29>:
 238:	8082                	ret

000000000000023a <proc_pagetable>:
{
 23a:	1101                	addi	sp,sp,-32

000000000000023c <.LCFI30>:
 23c:	ec06                	sd	ra,24(sp)
 23e:	e822                	sd	s0,16(sp)
 240:	e426                	sd	s1,8(sp)
 242:	e04a                	sd	s2,0(sp)
 244:	1000                	addi	s0,sp,32

0000000000000246 <.LCFI31>:
 246:	892a                	mv	s2,a0
  pagetable = uvmcreate();
 248:	00000097          	auipc	ra,0x0
 24c:	000080e7          	jalr	ra # 248 <.LCFI31+0x2>

0000000000000250 <.LVL38>:
 250:	84aa                	mv	s1,a0

0000000000000252 <.LVL39>:
  if(pagetable == 0)
 252:	c121                	beqz	a0,292 <.L23>
  if(mappages(pagetable, TRAMPOLINE, PGSIZE,
 254:	4729                	li	a4,10
 256:	00000697          	auipc	a3,0x0
 25a:	00068693          	mv	a3,a3
 25e:	6605                	lui	a2,0x1
 260:	040005b7          	lui	a1,0x4000
 264:	15fd                	addi	a1,a1,-1 # 3ffffff <.LLST10+0x3ffde60>
 266:	05b2                	slli	a1,a1,0xc
 268:	00000097          	auipc	ra,0x0
 26c:	000080e7          	jalr	ra # 268 <.LVL39+0x16>

0000000000000270 <.LVL40>:
 270:	02054863          	bltz	a0,2a0 <.L27>
  if(mappages(pagetable, TRAPFRAME, PGSIZE,
 274:	4719                	li	a4,6
 276:	05893683          	ld	a3,88(s2) # 258 <.LVL39+0x6>
 27a:	6605                	lui	a2,0x1
 27c:	020005b7          	lui	a1,0x2000
 280:	15fd                	addi	a1,a1,-1 # 1ffffff <.LLST10+0x1ffde60>
 282:	05b6                	slli	a1,a1,0xd
 284:	8526                	mv	a0,s1
 286:	00000097          	auipc	ra,0x0
 28a:	000080e7          	jalr	ra # 286 <.LVL40+0x16>

000000000000028e <.LVL41>:
 28e:	02054163          	bltz	a0,2b0 <.L28>

0000000000000292 <.L23>:
}
 292:	8526                	mv	a0,s1
 294:	60e2                	ld	ra,24(sp)
 296:	6442                	ld	s0,16(sp)

0000000000000298 <.LCFI32>:
 298:	64a2                	ld	s1,8(sp)
 29a:	6902                	ld	s2,0(sp)

000000000000029c <.LVL43>:
 29c:	6105                	addi	sp,sp,32

000000000000029e <.LCFI33>:
 29e:	8082                	ret

00000000000002a0 <.L27>:
    uvmfree(pagetable, 0);
 2a0:	4581                	li	a1,0
 2a2:	8526                	mv	a0,s1
 2a4:	00000097          	auipc	ra,0x0
 2a8:	000080e7          	jalr	ra # 2a4 <.L27+0x4>

00000000000002ac <.LVL45>:
    return 0;
 2ac:	4481                	li	s1,0

00000000000002ae <.LVL46>:
 2ae:	b7d5                	j	292 <.L23>

00000000000002b0 <.L28>:
    uvmunmap(pagetable, TRAMPOLINE, 1, 0);
 2b0:	4681                	li	a3,0
 2b2:	4605                	li	a2,1
 2b4:	040005b7          	lui	a1,0x4000
 2b8:	15fd                	addi	a1,a1,-1 # 3ffffff <.LLST10+0x3ffde60>
 2ba:	05b2                	slli	a1,a1,0xc
 2bc:	8526                	mv	a0,s1
 2be:	00000097          	auipc	ra,0x0
 2c2:	000080e7          	jalr	ra # 2be <.L28+0xe>

00000000000002c6 <.LVL48>:
    uvmfree(pagetable, 0);
 2c6:	4581                	li	a1,0
 2c8:	8526                	mv	a0,s1
 2ca:	00000097          	auipc	ra,0x0
 2ce:	000080e7          	jalr	ra # 2ca <.LVL48+0x4>

00000000000002d2 <.LVL49>:
    return 0;
 2d2:	4481                	li	s1,0

00000000000002d4 <.LVL50>:
 2d4:	bf7d                	j	292 <.L23>

00000000000002d6 <proc_freepagetable>:
{
 2d6:	1101                	addi	sp,sp,-32

00000000000002d8 <.LCFI35>:
 2d8:	ec06                	sd	ra,24(sp)
 2da:	e822                	sd	s0,16(sp)
 2dc:	e426                	sd	s1,8(sp)
 2de:	e04a                	sd	s2,0(sp)
 2e0:	1000                	addi	s0,sp,32

00000000000002e2 <.LCFI36>:
 2e2:	84aa                	mv	s1,a0
 2e4:	892e                	mv	s2,a1
  uvmunmap(pagetable, TRAMPOLINE, 1, 0);
 2e6:	4681                	li	a3,0
 2e8:	4605                	li	a2,1
 2ea:	040005b7          	lui	a1,0x4000

00000000000002ee <.LVL52>:
 2ee:	15fd                	addi	a1,a1,-1 # 3ffffff <.LLST10+0x3ffde60>
 2f0:	05b2                	slli	a1,a1,0xc
 2f2:	00000097          	auipc	ra,0x0
 2f6:	000080e7          	jalr	ra # 2f2 <.LVL52+0x4>

00000000000002fa <.LVL53>:
  uvmunmap(pagetable, TRAPFRAME, 1, 0);
 2fa:	4681                	li	a3,0
 2fc:	4605                	li	a2,1
 2fe:	020005b7          	lui	a1,0x2000
 302:	15fd                	addi	a1,a1,-1 # 1ffffff <.LLST10+0x1ffde60>
 304:	05b6                	slli	a1,a1,0xd
 306:	8526                	mv	a0,s1
 308:	00000097          	auipc	ra,0x0
 30c:	000080e7          	jalr	ra # 308 <.LVL53+0xe>

0000000000000310 <.LVL54>:
  uvmfree(pagetable, sz);
 310:	85ca                	mv	a1,s2
 312:	8526                	mv	a0,s1
 314:	00000097          	auipc	ra,0x0
 318:	000080e7          	jalr	ra # 314 <.LVL54+0x4>

000000000000031c <.LVL55>:
}
 31c:	60e2                	ld	ra,24(sp)
 31e:	6442                	ld	s0,16(sp)

0000000000000320 <.LCFI37>:
 320:	64a2                	ld	s1,8(sp)

0000000000000322 <.LVL56>:
 322:	6902                	ld	s2,0(sp)

0000000000000324 <.LVL57>:
 324:	6105                	addi	sp,sp,32

0000000000000326 <.LCFI38>:
 326:	8082                	ret

0000000000000328 <freeproc>:
{
 328:	1101                	addi	sp,sp,-32

000000000000032a <.LCFI39>:
 32a:	ec06                	sd	ra,24(sp)
 32c:	e822                	sd	s0,16(sp)
 32e:	e426                	sd	s1,8(sp)
 330:	1000                	addi	s0,sp,32

0000000000000332 <.LCFI40>:
 332:	84aa                	mv	s1,a0
  if(p->trapframe)
 334:	6d28                	ld	a0,88(a0)

0000000000000336 <.LVL59>:
 336:	c509                	beqz	a0,340 <.L32>
    kfree((void*)p->trapframe);
 338:	00000097          	auipc	ra,0x0
 33c:	000080e7          	jalr	ra # 338 <.LVL59+0x2>

0000000000000340 <.L32>:
  p->trapframe = 0;
 340:	0404bc23          	sd	zero,88(s1)
  if(p->pagetable)
 344:	68a8                	ld	a0,80(s1)
 346:	c511                	beqz	a0,352 <.L33>
    proc_freepagetable(p->pagetable, p->sz);
 348:	64ac                	ld	a1,72(s1)
 34a:	00000097          	auipc	ra,0x0
 34e:	000080e7          	jalr	ra # 34a <.L32+0xa>

0000000000000352 <.L33>:
  p->pagetable = 0;
 352:	0404b823          	sd	zero,80(s1)
  p->sz = 0;
 356:	0404b423          	sd	zero,72(s1)
  p->pid = 0;
 35a:	0204a823          	sw	zero,48(s1)
  p->parent = 0;
 35e:	0204bc23          	sd	zero,56(s1)
  p->name[0] = 0;
 362:	14048c23          	sb	zero,344(s1)
  p->chan = 0;
 366:	0204b023          	sd	zero,32(s1)
  p->killed = 0;
 36a:	0204a423          	sw	zero,40(s1)
  p->xstate = 0;
 36e:	0204a623          	sw	zero,44(s1)
  p->state = UNUSED;
 372:	0004ac23          	sw	zero,24(s1)
}
 376:	60e2                	ld	ra,24(sp)
 378:	6442                	ld	s0,16(sp)

000000000000037a <.LCFI41>:
 37a:	64a2                	ld	s1,8(sp)

000000000000037c <.LVL62>:
 37c:	6105                	addi	sp,sp,32

000000000000037e <.LCFI42>:
 37e:	8082                	ret

0000000000000380 <allocproc>:
{
 380:	1101                	addi	sp,sp,-32

0000000000000382 <.LCFI43>:
 382:	ec06                	sd	ra,24(sp)
 384:	e822                	sd	s0,16(sp)
 386:	e426                	sd	s1,8(sp)
 388:	e04a                	sd	s2,0(sp)
 38a:	1000                	addi	s0,sp,32

000000000000038c <.LCFI44>:
  for(p = proc; p < &proc[NPROC]; p++) {
 38c:	00000497          	auipc	s1,0x0
 390:	00048493          	mv	s1,s1
 394:	00000917          	auipc	s2,0x0
 398:	00090913          	mv	s2,s2

000000000000039c <.L39>:
    acquire(&p->lock);
 39c:	8526                	mv	a0,s1
 39e:	00000097          	auipc	ra,0x0
 3a2:	000080e7          	jalr	ra # 39e <.L39+0x2>

00000000000003a6 <.LVL65>:
    if(p->state == UNUSED) {
 3a6:	4c9c                	lw	a5,24(s1)
 3a8:	cf81                	beqz	a5,3c0 <.L45>
      release(&p->lock);
 3aa:	8526                	mv	a0,s1
 3ac:	00000097          	auipc	ra,0x0
 3b0:	000080e7          	jalr	ra # 3ac <.LVL65+0x6>

00000000000003b4 <.LVL66>:
  for(p = proc; p < &proc[NPROC]; p++) {
 3b4:	16848493          	addi	s1,s1,360 # 4f4 <.L53+0x2>
 3b8:	ff2492e3          	bne	s1,s2,39c <.L39>
  return 0;
 3bc:	4481                	li	s1,0

00000000000003be <.LVL68>:
 3be:	a889                	j	410 <.L35>

00000000000003c0 <.L45>:
  p->pid = allocpid();
 3c0:	00000097          	auipc	ra,0x0
 3c4:	000080e7          	jalr	ra # 3c0 <.L45>

00000000000003c8 <.LVL70>:
 3c8:	d888                	sw	a0,48(s1)
  p->state = USED;
 3ca:	4785                	li	a5,1
 3cc:	cc9c                	sw	a5,24(s1)
  if((p->trapframe = (struct trapframe *)kalloc()) == 0){
 3ce:	00000097          	auipc	ra,0x0
 3d2:	000080e7          	jalr	ra # 3ce <.LVL70+0x6>

00000000000003d6 <.LVL71>:
 3d6:	892a                	mv	s2,a0
 3d8:	eca8                	sd	a0,88(s1)
 3da:	c131                	beqz	a0,41e <.L46>
  p->pagetable = proc_pagetable(p);
 3dc:	8526                	mv	a0,s1
 3de:	00000097          	auipc	ra,0x0
 3e2:	000080e7          	jalr	ra # 3de <.LVL71+0x8>

00000000000003e6 <.LVL72>:
 3e6:	892a                	mv	s2,a0
 3e8:	e8a8                	sd	a0,80(s1)
  if(p->pagetable == 0){
 3ea:	c531                	beqz	a0,436 <.L47>
  memset(&p->context, 0, sizeof(p->context));
 3ec:	07000613          	li	a2,112
 3f0:	4581                	li	a1,0
 3f2:	06048513          	addi	a0,s1,96
 3f6:	00000097          	auipc	ra,0x0
 3fa:	000080e7          	jalr	ra # 3f6 <.LVL72+0x10>

00000000000003fe <.LVL73>:
  p->context.ra = (uint64)forkret;
 3fe:	00000797          	auipc	a5,0x0
 402:	00078793          	mv	a5,a5
 406:	f0bc                	sd	a5,96(s1)
  p->context.sp = p->kstack + PGSIZE;
 408:	60bc                	ld	a5,64(s1)
 40a:	6705                	lui	a4,0x1
 40c:	97ba                	add	a5,a5,a4
 40e:	f4bc                	sd	a5,104(s1)

0000000000000410 <.L35>:
}
 410:	8526                	mv	a0,s1
 412:	60e2                	ld	ra,24(sp)
 414:	6442                	ld	s0,16(sp)

0000000000000416 <.LCFI45>:
 416:	64a2                	ld	s1,8(sp)
 418:	6902                	ld	s2,0(sp)
 41a:	6105                	addi	sp,sp,32

000000000000041c <.LCFI46>:
 41c:	8082                	ret

000000000000041e <.L46>:
    freeproc(p);
 41e:	8526                	mv	a0,s1
 420:	00000097          	auipc	ra,0x0
 424:	000080e7          	jalr	ra # 420 <.L46+0x2>

0000000000000428 <.LVL76>:
    release(&p->lock);
 428:	8526                	mv	a0,s1
 42a:	00000097          	auipc	ra,0x0
 42e:	000080e7          	jalr	ra # 42a <.LVL76+0x2>

0000000000000432 <.LVL77>:
    return 0;
 432:	84ca                	mv	s1,s2

0000000000000434 <.LVL78>:
 434:	bff1                	j	410 <.L35>

0000000000000436 <.L47>:
    freeproc(p);
 436:	8526                	mv	a0,s1
 438:	00000097          	auipc	ra,0x0
 43c:	000080e7          	jalr	ra # 438 <.L47+0x2>

0000000000000440 <.LVL80>:
    release(&p->lock);
 440:	8526                	mv	a0,s1
 442:	00000097          	auipc	ra,0x0
 446:	000080e7          	jalr	ra # 442 <.LVL80+0x2>

000000000000044a <.LVL81>:
    return 0;
 44a:	84ca                	mv	s1,s2

000000000000044c <.LVL82>:
 44c:	b7d1                	j	410 <.L35>

000000000000044e <userinit>:
{
 44e:	1101                	addi	sp,sp,-32

0000000000000450 <.LCFI48>:
 450:	ec06                	sd	ra,24(sp)
 452:	e822                	sd	s0,16(sp)
 454:	e426                	sd	s1,8(sp)
 456:	1000                	addi	s0,sp,32

0000000000000458 <.LCFI49>:
  p = allocproc();
 458:	00000097          	auipc	ra,0x0
 45c:	000080e7          	jalr	ra # 458 <.LCFI49>

0000000000000460 <.LVL83>:
 460:	84aa                	mv	s1,a0

0000000000000462 <.LVL84>:
  initproc = p;
 462:	00000797          	auipc	a5,0x0
 466:	00a7b023          	sd	a0,0(a5) # 462 <.LVL84>
  uvmfirst(p->pagetable, initcode, sizeof(initcode));
 46a:	03400613          	li	a2,52
 46e:	00000597          	auipc	a1,0x0
 472:	00058593          	mv	a1,a1
 476:	6928                	ld	a0,80(a0)
 478:	00000097          	auipc	ra,0x0
 47c:	000080e7          	jalr	ra # 478 <.LVL84+0x16>

0000000000000480 <.LVL85>:
  p->sz = PGSIZE;
 480:	6785                	lui	a5,0x1
 482:	e4bc                	sd	a5,72(s1)
  p->trapframe->epc = 0;      // user program counter
 484:	6cb8                	ld	a4,88(s1)
 486:	00073c23          	sd	zero,24(a4) # 1018 <.LLST80+0x35>
  p->trapframe->sp = PGSIZE;  // user stack pointer
 48a:	6cb8                	ld	a4,88(s1)
 48c:	fb1c                	sd	a5,48(a4)
  safestrcpy(p->name, "initcode", sizeof(p->name));
 48e:	4641                	li	a2,16
 490:	00000597          	auipc	a1,0x0
 494:	00058593          	mv	a1,a1
 498:	15848513          	addi	a0,s1,344
 49c:	00000097          	auipc	ra,0x0
 4a0:	000080e7          	jalr	ra # 49c <.LVL85+0x1c>

00000000000004a4 <.LVL86>:
  p->cwd = namei("/");
 4a4:	00000517          	auipc	a0,0x0
 4a8:	00050513          	mv	a0,a0
 4ac:	00000097          	auipc	ra,0x0
 4b0:	000080e7          	jalr	ra # 4ac <.LVL86+0x8>

00000000000004b4 <.LVL87>:
 4b4:	14a4b823          	sd	a0,336(s1)
  p->state = RUNNABLE;
 4b8:	478d                	li	a5,3
 4ba:	cc9c                	sw	a5,24(s1)
  release(&p->lock);
 4bc:	8526                	mv	a0,s1
 4be:	00000097          	auipc	ra,0x0
 4c2:	000080e7          	jalr	ra # 4be <.LVL87+0xa>

00000000000004c6 <.LVL88>:
}
 4c6:	60e2                	ld	ra,24(sp)
 4c8:	6442                	ld	s0,16(sp)

00000000000004ca <.LCFI50>:
 4ca:	64a2                	ld	s1,8(sp)

00000000000004cc <.LVL89>:
 4cc:	6105                	addi	sp,sp,32

00000000000004ce <.LCFI51>:
 4ce:	8082                	ret

00000000000004d0 <growproc>:
{
 4d0:	1101                	addi	sp,sp,-32

00000000000004d2 <.LCFI52>:
 4d2:	ec06                	sd	ra,24(sp)
 4d4:	e822                	sd	s0,16(sp)
 4d6:	e426                	sd	s1,8(sp)
 4d8:	e04a                	sd	s2,0(sp)
 4da:	1000                	addi	s0,sp,32

00000000000004dc <.LCFI53>:
 4dc:	892a                	mv	s2,a0
  struct proc *p = myproc();
 4de:	00000097          	auipc	ra,0x0
 4e2:	000080e7          	jalr	ra # 4de <.LCFI53+0x2>

00000000000004e6 <.LVL91>:
 4e6:	84aa                	mv	s1,a0

00000000000004e8 <.LVL92>:
  sz = p->sz;
 4e8:	652c                	ld	a1,72(a0)

00000000000004ea <.LVL93>:
  if(n > 0){
 4ea:	01204c63          	bgtz	s2,502 <.L56>
  } else if(n < 0){
 4ee:	02094663          	bltz	s2,51a <.L57>

00000000000004f2 <.L53>:
  p->sz = sz;
 4f2:	e4ac                	sd	a1,72(s1)
  return 0;
 4f4:	4501                	li	a0,0

00000000000004f6 <.L52>:
}
 4f6:	60e2                	ld	ra,24(sp)
 4f8:	6442                	ld	s0,16(sp)

00000000000004fa <.LCFI54>:
 4fa:	64a2                	ld	s1,8(sp)

00000000000004fc <.LVL94>:
 4fc:	6902                	ld	s2,0(sp)
 4fe:	6105                	addi	sp,sp,32

0000000000000500 <.LCFI55>:
 500:	8082                	ret

0000000000000502 <.L56>:
    if((sz = uvmalloc(p->pagetable, sz, sz + n, PTE_W)) == 0) {
 502:	4691                	li	a3,4
 504:	00b90633          	add	a2,s2,a1
 508:	6928                	ld	a0,80(a0)
 50a:	00000097          	auipc	ra,0x0
 50e:	000080e7          	jalr	ra # 50a <.L56+0x8>

0000000000000512 <.LVL96>:
 512:	85aa                	mv	a1,a0

0000000000000514 <.LVL97>:
 514:	fd79                	bnez	a0,4f2 <.L53>
      return -1;
 516:	557d                	li	a0,-1

0000000000000518 <.LVL98>:
 518:	bff9                	j	4f6 <.L52>

000000000000051a <.L57>:
    sz = uvmdealloc(p->pagetable, sz, sz + n);
 51a:	00b90633          	add	a2,s2,a1
 51e:	6928                	ld	a0,80(a0)
 520:	00000097          	auipc	ra,0x0
 524:	000080e7          	jalr	ra # 520 <.L57+0x6>

0000000000000528 <.LVL99>:
 528:	85aa                	mv	a1,a0

000000000000052a <.LVL100>:
 52a:	b7e1                	j	4f2 <.L53>

000000000000052c <fork>:
{
 52c:	7139                	addi	sp,sp,-64

000000000000052e <.LCFI57>:
 52e:	fc06                	sd	ra,56(sp)
 530:	f822                	sd	s0,48(sp)
 532:	f426                	sd	s1,40(sp)
 534:	f04a                	sd	s2,32(sp)
 536:	ec4e                	sd	s3,24(sp)
 538:	e852                	sd	s4,16(sp)
 53a:	e456                	sd	s5,8(sp)
 53c:	0080                	addi	s0,sp,64

000000000000053e <.LCFI58>:
  struct proc *p = myproc();
 53e:	00000097          	auipc	ra,0x0
 542:	000080e7          	jalr	ra # 53e <.LCFI58>

0000000000000546 <.LVL101>:
 546:	8aaa                	mv	s5,a0

0000000000000548 <.LVL102>:
  if((np = allocproc()) == 0){
 548:	00000097          	auipc	ra,0x0
 54c:	000080e7          	jalr	ra # 548 <.LVL102>

0000000000000550 <.LVL103>:
 550:	10050c63          	beqz	a0,668 <.L64>
 554:	8a2a                	mv	s4,a0
  if(uvmcopy(p->pagetable, np->pagetable, p->sz) < 0){
 556:	048ab603          	ld	a2,72(s5)
 55a:	692c                	ld	a1,80(a0)
 55c:	050ab503          	ld	a0,80(s5)

0000000000000560 <.LVL104>:
 560:	00000097          	auipc	ra,0x0
 564:	000080e7          	jalr	ra # 560 <.LVL104>

0000000000000568 <.LVL105>:
 568:	04054863          	bltz	a0,5b8 <.L68>
  np->sz = p->sz;
 56c:	048ab783          	ld	a5,72(s5)
 570:	04fa3423          	sd	a5,72(s4)
  *(np->trapframe) = *(p->trapframe);
 574:	058ab683          	ld	a3,88(s5)
 578:	87b6                	mv	a5,a3
 57a:	058a3703          	ld	a4,88(s4)
 57e:	12068693          	addi	a3,a3,288 # 376 <.L33+0x24>

0000000000000582 <.L61>:
 582:	0007b803          	ld	a6,0(a5) # 1000 <.LLST80+0x1d>
 586:	6788                	ld	a0,8(a5)
 588:	6b8c                	ld	a1,16(a5)
 58a:	6f90                	ld	a2,24(a5)
 58c:	01073023          	sd	a6,0(a4)
 590:	e708                	sd	a0,8(a4)
 592:	eb0c                	sd	a1,16(a4)
 594:	ef10                	sd	a2,24(a4)
 596:	02078793          	addi	a5,a5,32
 59a:	02070713          	addi	a4,a4,32
 59e:	fed792e3          	bne	a5,a3,582 <.L61>
  np->trapframe->a0 = 0;
 5a2:	058a3783          	ld	a5,88(s4)
 5a6:	0607b823          	sd	zero,112(a5)

00000000000005aa <.LVL106>:
  for(i = 0; i < NOFILE; i++)
 5aa:	0d0a8493          	addi	s1,s5,208
 5ae:	0d0a0913          	addi	s2,s4,208
 5b2:	150a8993          	addi	s3,s5,336
 5b6:	a00d                	j	5d8 <.L63>

00000000000005b8 <.L68>:
    freeproc(np);
 5b8:	8552                	mv	a0,s4
 5ba:	00000097          	auipc	ra,0x0
 5be:	000080e7          	jalr	ra # 5ba <.L68+0x2>

00000000000005c2 <.LVL108>:
    release(&np->lock);
 5c2:	8552                	mv	a0,s4
 5c4:	00000097          	auipc	ra,0x0
 5c8:	000080e7          	jalr	ra # 5c4 <.LVL108+0x2>

00000000000005cc <.LVL109>:
    return -1;
 5cc:	597d                	li	s2,-1
 5ce:	a059                	j	654 <.L59>

00000000000005d0 <.L62>:
  for(i = 0; i < NOFILE; i++)
 5d0:	04a1                	addi	s1,s1,8

00000000000005d2 <.LVL111>:
 5d2:	0921                	addi	s2,s2,8 # 39c <.L39>
 5d4:	01348b63          	beq	s1,s3,5ea <.L69>

00000000000005d8 <.L63>:
    if(p->ofile[i])
 5d8:	6088                	ld	a0,0(s1)
 5da:	d97d                	beqz	a0,5d0 <.L62>
      np->ofile[i] = filedup(p->ofile[i]);
 5dc:	00000097          	auipc	ra,0x0
 5e0:	000080e7          	jalr	ra # 5dc <.L63+0x4>

00000000000005e4 <.LVL113>:
 5e4:	00a93023          	sd	a0,0(s2)
 5e8:	b7e5                	j	5d0 <.L62>

00000000000005ea <.L69>:
  np->cwd = idup(p->cwd);
 5ea:	150ab503          	ld	a0,336(s5)
 5ee:	00000097          	auipc	ra,0x0
 5f2:	000080e7          	jalr	ra # 5ee <.L69+0x4>

00000000000005f6 <.LVL115>:
 5f6:	14aa3823          	sd	a0,336(s4)
  safestrcpy(np->name, p->name, sizeof(p->name));
 5fa:	4641                	li	a2,16
 5fc:	158a8593          	addi	a1,s5,344
 600:	158a0513          	addi	a0,s4,344
 604:	00000097          	auipc	ra,0x0
 608:	000080e7          	jalr	ra # 604 <.LVL115+0xe>

000000000000060c <.LVL116>:
  pid = np->pid;
 60c:	030a2903          	lw	s2,48(s4)

0000000000000610 <.LVL117>:
  release(&np->lock);
 610:	8552                	mv	a0,s4
 612:	00000097          	auipc	ra,0x0
 616:	000080e7          	jalr	ra # 612 <.LVL117+0x2>

000000000000061a <.LVL118>:
  acquire(&wait_lock);
 61a:	00000497          	auipc	s1,0x0
 61e:	00048493          	mv	s1,s1

0000000000000622 <.LVL119>:
 622:	8526                	mv	a0,s1
 624:	00000097          	auipc	ra,0x0
 628:	000080e7          	jalr	ra # 624 <.LVL119+0x2>

000000000000062c <.LVL120>:
  np->parent = p;
 62c:	035a3c23          	sd	s5,56(s4)
  release(&wait_lock);
 630:	8526                	mv	a0,s1
 632:	00000097          	auipc	ra,0x0
 636:	000080e7          	jalr	ra # 632 <.LVL120+0x6>

000000000000063a <.LVL121>:
  acquire(&np->lock);
 63a:	8552                	mv	a0,s4
 63c:	00000097          	auipc	ra,0x0
 640:	000080e7          	jalr	ra # 63c <.LVL121+0x2>

0000000000000644 <.LVL122>:
  np->state = RUNNABLE;
 644:	478d                	li	a5,3
 646:	00fa2c23          	sw	a5,24(s4)
  release(&np->lock);
 64a:	8552                	mv	a0,s4
 64c:	00000097          	auipc	ra,0x0
 650:	000080e7          	jalr	ra # 64c <.LVL122+0x8>

0000000000000654 <.L59>:
}
 654:	854a                	mv	a0,s2
 656:	70e2                	ld	ra,56(sp)
 658:	7442                	ld	s0,48(sp)

000000000000065a <.LCFI59>:
 65a:	74a2                	ld	s1,40(sp)
 65c:	7902                	ld	s2,32(sp)
 65e:	69e2                	ld	s3,24(sp)
 660:	6a42                	ld	s4,16(sp)
 662:	6aa2                	ld	s5,8(sp)

0000000000000664 <.LVL124>:
 664:	6121                	addi	sp,sp,64

0000000000000666 <.LCFI60>:
 666:	8082                	ret

0000000000000668 <.L64>:
    return -1;
 668:	597d                	li	s2,-1
 66a:	b7ed                	j	654 <.L59>

000000000000066c <scheduler>:
{
 66c:	715d                	addi	sp,sp,-80

000000000000066e <.LCFI62>:
 66e:	e486                	sd	ra,72(sp)
 670:	e0a2                	sd	s0,64(sp)
 672:	fc26                	sd	s1,56(sp)
 674:	f84a                	sd	s2,48(sp)
 676:	f44e                	sd	s3,40(sp)
 678:	f052                	sd	s4,32(sp)
 67a:	ec56                	sd	s5,24(sp)
 67c:	e85a                	sd	s6,16(sp)
 67e:	e45e                	sd	s7,8(sp)
 680:	e062                	sd	s8,0(sp)
 682:	0880                	addi	s0,sp,80

0000000000000684 <.LBB61>:
 684:	8792                	mv	a5,tp

0000000000000686 <.LBE65>:
  int id = r_tp();
 686:	2781                	sext.w	a5,a5

0000000000000688 <.LBE61>:
  c->proc = 0;
 688:	00779b93          	slli	s7,a5,0x7
 68c:	00000717          	auipc	a4,0x0
 690:	00070713          	mv	a4,a4
 694:	975e                	add	a4,a4,s7
 696:	02073823          	sd	zero,48(a4) # 6bc <.LVL128+0x16>

000000000000069a <.LBB67>:
        swtch(&c->context, &p->context);
 69a:	00000717          	auipc	a4,0x0
 69e:	00070713          	mv	a4,a4
 6a2:	9bba                	add	s7,s7,a4
        c->proc = p;
 6a4:	079e                	slli	a5,a5,0x7

00000000000006a6 <.LVL128>:
 6a6:	00000b17          	auipc	s6,0x0
 6aa:	000b0b13          	mv	s6,s6
 6ae:	9b3e                	add	s6,s6,a5
        if (ticks - rtp->start_tick - rtp->period == 0) {
 6b0:	00000a97          	auipc	s5,0x0
 6b4:	000a8a93          	mv	s5,s5
          if ((recent_rtp == rtp->proc->pid || rtp->proc->pid < next->proc->pid) && recent_rtp != next->proc->pid)
 6b8:	80000a37          	lui	s4,0x80000
 6bc:	fffa4a13          	not	s4,s4

00000000000006c0 <.L83>:
  asm volatile("csrr %0, sstatus" : "=r" (x) );
 6c0:	100027f3          	csrr	a5,sstatus

00000000000006c4 <.LBB72>:
  w_sstatus(r_sstatus() | SSTATUS_SIE);
 6c4:	0027e793          	ori	a5,a5,2

00000000000006c8 <.LBB75>:
  asm volatile("csrw sstatus, %0" : : "r" (x));
 6c8:	10079073          	csrw	sstatus,a5

00000000000006cc <.LBE68>:
    for(cp = proc; cp < &proc[NPROC]; cp++) {
 6cc:	00000497          	auipc	s1,0x0
 6d0:	00048493          	mv	s1,s1

00000000000006d4 <.LBB76>:
      for (rtp = rt_proc; rtp < rt_proc + n_rt_proc; rtp++) {
 6d4:	00000917          	auipc	s2,0x0
 6d8:	00090913          	mv	s2,s2
 6dc:	00000997          	auipc	s3,0x0
 6e0:	00098993          	mv	s3,s3
 6e4:	a8c5                	j	7d4 <.L71>

00000000000006e6 <.L72>:
 6e6:	07e1                	addi	a5,a5,24
 6e8:	0ce7fd63          	bgeu	a5,a4,7c2 <.L99>

00000000000006ec <.L73>:
        if (rtp->proc->pid == cp->pid) flag = 1;
 6ec:	6394                	ld	a3,0(a5)
 6ee:	5a94                	lw	a3,48(a3)
 6f0:	fec69be3          	bne	a3,a2,6e6 <.L72>
 6f4:	85aa                	mv	a1,a0

00000000000006f6 <.LVL135>:
 6f6:	bfc5                	j	6e6 <.L72>

00000000000006f8 <.L104>:
        if (ticks - rtp->start_tick - rtp->period == 0) {
 6f8:	000aa803          	lw	a6,0(s5) # 6b0 <.LVL128+0xa>
          rtp->start_tick = ticks;
 6fc:	00080e1b          	sext.w	t3,a6
          if ((recent_rtp == rtp->proc->pid || rtp->proc->pid < next->proc->pid) && recent_rtp != next->proc->pid)
 700:	00000e97          	auipc	t4,0x0
 704:	000eae83          	lw	t4,0(t4) # 700 <.L104+0x8>
 708:	4301                	li	t1,0
 70a:	88d2                	mv	a7,s4
 70c:	00000797          	auipc	a5,0x0
 710:	00078793          	mv	a5,a5

0000000000000714 <.LVL137>:
 714:	a835                	j	750 <.L79>

0000000000000716 <.L101>:
          rtp->start_tick = ticks;
 716:	01c7a823          	sw	t3,16(a5) # 71c <.L101+0x6>
          rtp->finished = 0;
 71a:	0007aa23          	sw	zero,20(a5)

000000000000071e <.L76>:
        if (deadline < min_deadline) {
 71e:	0316c463          	blt	a3,a7,746 <.L90>
        } else if (deadline == min_deadline) {
 722:	02d89463          	bne	a7,a3,74a <.L77>
          if ((recent_rtp == rtp->proc->pid || rtp->proc->pid < next->proc->pid) && recent_rtp != next->proc->pid)
 726:	6394                	ld	a3,0(a5)

0000000000000728 <.LVL140>:
 728:	5a94                	lw	a3,48(a3)
 72a:	01d68763          	beq	a3,t4,738 <.L78>
 72e:	00033603          	ld	a2,0(t1)
 732:	5a10                	lw	a2,48(a2)
 734:	00c6db63          	bge	a3,a2,74a <.L77>

0000000000000738 <.L78>:
 738:	00033683          	ld	a3,0(t1)
 73c:	5a94                	lw	a3,48(a3)
 73e:	01d68663          	beq	a3,t4,74a <.L77>
 742:	833e                	mv	t1,a5

0000000000000744 <.LVL141>:
 744:	a019                	j	74a <.L77>

0000000000000746 <.L90>:
 746:	833e                	mv	t1,a5

0000000000000748 <.LVL143>:
 748:	88b6                	mv	a7,a3

000000000000074a <.L77>:
      for(rtp = rt_proc; rtp < rt_proc + n_rt_proc; rtp++) {
 74a:	07e1                	addi	a5,a5,24
 74c:	02e7f063          	bgeu	a5,a4,76c <.L100>

0000000000000750 <.L79>:
        if (ticks - rtp->start_tick - rtp->period == 0) {
 750:	4b90                	lw	a2,16(a5)
 752:	47d4                	lw	a3,12(a5)
 754:	40c8053b          	subw	a0,a6,a2
 758:	0006859b          	sext.w	a1,a3
 75c:	fab50de3          	beq	a0,a1,716 <.L101>

0000000000000760 <.LVL147>:
        if (rtp->finished) continue;
 760:	4bcc                	lw	a1,20(a5)
 762:	f5e5                	bnez	a1,74a <.L77>
        deadline = rtp->period + rtp->start_tick - ticks;
 764:	9eb1                	addw	a3,a3,a2

0000000000000766 <.LVL148>:
 766:	410686bb          	subw	a3,a3,a6
 76a:	bf55                	j	71e <.L76>

000000000000076c <.L100>:
      if (next) {
 76c:	02030c63          	beqz	t1,7a4 <.L80>
        recent_rtp = next->proc->pid;
 770:	00033c03          	ld	s8,0(t1)
 774:	030c2783          	lw	a5,48(s8)

0000000000000778 <.LVL150>:
 778:	00000717          	auipc	a4,0x0
 77c:	00f72023          	sw	a5,0(a4) # 778 <.LVL150>

0000000000000780 <.LVL151>:
      acquire(&p->lock);
 780:	8562                	mv	a0,s8
 782:	00000097          	auipc	ra,0x0
 786:	000080e7          	jalr	ra # 782 <.LVL151+0x2>

000000000000078a <.LVL152>:
      if(p->state == RUNNABLE) {
 78a:	018c2703          	lw	a4,24(s8)
 78e:	478d                	li	a5,3
 790:	06f70363          	beq	a4,a5,7f6 <.L102>
      release(&p->lock);
 794:	8562                	mv	a0,s8
 796:	00000097          	auipc	ra,0x0
 79a:	000080e7          	jalr	ra # 796 <.LVL152+0xc>

000000000000079e <.L85>:
      if (next) cp--;
 79e:	e9848493          	addi	s1,s1,-360 # 564 <.LVL104+0x4>
 7a2:	a00d                	j	7c4 <.L86>

00000000000007a4 <.L80>:
      acquire(&p->lock);
 7a4:	8526                	mv	a0,s1
 7a6:	00000097          	auipc	ra,0x0
 7aa:	000080e7          	jalr	ra # 7a6 <.L80+0x2>

00000000000007ae <.LVL156>:
      if(p->state == RUNNABLE) {
 7ae:	4c98                	lw	a4,24(s1)
 7b0:	478d                	li	a5,3
 7b2:	06f70663          	beq	a4,a5,81e <.L103>
      release(&p->lock);
 7b6:	8526                	mv	a0,s1
 7b8:	00000097          	auipc	ra,0x0
 7bc:	000080e7          	jalr	ra # 7b8 <.LVL156+0xa>

00000000000007c0 <.LVL157>:
      if (next) cp--;
 7c0:	a011                	j	7c4 <.L86>

00000000000007c2 <.L99>:
      if (flag) continue;
 7c2:	d99d                	beqz	a1,6f8 <.L104>

00000000000007c4 <.L86>:
    for(cp = proc; cp < &proc[NPROC]; cp++) {
 7c4:	16848493          	addi	s1,s1,360
 7c8:	00000797          	auipc	a5,0x0
 7cc:	00078793          	mv	a5,a5
 7d0:	eef4f8e3          	bgeu	s1,a5,6c0 <.L83>

00000000000007d4 <.L71>:
      for (rtp = rt_proc; rtp < rt_proc + n_rt_proc; rtp++) {
 7d4:	0009a783          	lw	a5,0(s3) # 6dc <.LBB76+0x8>
 7d8:	00179713          	slli	a4,a5,0x1
 7dc:	973e                	add	a4,a4,a5
 7de:	070e                	slli	a4,a4,0x3
 7e0:	974a                	add	a4,a4,s2
 7e2:	fce971e3          	bgeu	s2,a4,7a4 <.L80>
        if (rtp->proc->pid == cp->pid) flag = 1;
 7e6:	5890                	lw	a2,48(s1)
      int flag = 0;
 7e8:	4581                	li	a1,0
      for (rtp = rt_proc; rtp < rt_proc + n_rt_proc; rtp++) {
 7ea:	00000797          	auipc	a5,0x0
 7ee:	00078793          	mv	a5,a5
        if (rtp->proc->pid == cp->pid) flag = 1;
 7f2:	4505                	li	a0,1
 7f4:	bde5                	j	6ec <.L73>

00000000000007f6 <.L102>:
        p->state = RUNNING;
 7f6:	4791                	li	a5,4
 7f8:	00fc2c23          	sw	a5,24(s8)
        c->proc = p;
 7fc:	038b3823          	sd	s8,48(s6) # 6d6 <.LBB76+0x2>
        swtch(&c->context, &p->context);
 800:	060c0593          	addi	a1,s8,96
 804:	855e                	mv	a0,s7
 806:	00000097          	auipc	ra,0x0
 80a:	000080e7          	jalr	ra # 806 <.L102+0x10>

000000000000080e <.LVL163>:
        c->proc = 0;
 80e:	020b3823          	sd	zero,48(s6)
      release(&p->lock);
 812:	8562                	mv	a0,s8
 814:	00000097          	auipc	ra,0x0
 818:	000080e7          	jalr	ra # 814 <.LVL163+0x6>

000000000000081c <.LVL164>:
      if (next) cp--;
 81c:	b749                	j	79e <.L85>

000000000000081e <.L103>:
        p->state = RUNNING;
 81e:	4791                	li	a5,4
 820:	cc9c                	sw	a5,24(s1)
        c->proc = p;
 822:	029b3823          	sd	s1,48(s6)
        swtch(&c->context, &p->context);
 826:	06048593          	addi	a1,s1,96
 82a:	855e                	mv	a0,s7
 82c:	00000097          	auipc	ra,0x0
 830:	000080e7          	jalr	ra # 82c <.L103+0xe>

0000000000000834 <.LVL166>:
        c->proc = 0;
 834:	020b3823          	sd	zero,48(s6)
      release(&p->lock);
 838:	8526                	mv	a0,s1
 83a:	00000097          	auipc	ra,0x0
 83e:	000080e7          	jalr	ra # 83a <.LVL166+0x6>

0000000000000842 <.LVL167>:
      if (next) cp--;
 842:	b749                	j	7c4 <.L86>

0000000000000844 <sched>:
{
 844:	7179                	addi	sp,sp,-48

0000000000000846 <.LCFI64>:
 846:	f406                	sd	ra,40(sp)
 848:	f022                	sd	s0,32(sp)
 84a:	ec26                	sd	s1,24(sp)
 84c:	e84a                	sd	s2,16(sp)
 84e:	e44e                	sd	s3,8(sp)
 850:	1800                	addi	s0,sp,48

0000000000000852 <.LCFI65>:
  struct proc *p = myproc();
 852:	00000097          	auipc	ra,0x0
 856:	000080e7          	jalr	ra # 852 <.LCFI65>

000000000000085a <.LVL168>:
 85a:	84aa                	mv	s1,a0

000000000000085c <.LVL169>:
  if(!holding(&p->lock))
 85c:	00000097          	auipc	ra,0x0
 860:	000080e7          	jalr	ra # 85c <.LVL169>

0000000000000864 <.LVL170>:
 864:	c93d                	beqz	a0,8da <.L111>

0000000000000866 <.LBB106>:
  asm volatile("mv %0, tp" : "=r" (x) );
 866:	8792                	mv	a5,tp

0000000000000868 <.LBE106>:
  if(mycpu()->noff != 1)
 868:	2781                	sext.w	a5,a5
 86a:	079e                	slli	a5,a5,0x7
 86c:	00000717          	auipc	a4,0x0
 870:	00070713          	mv	a4,a4
 874:	97ba                	add	a5,a5,a4
 876:	0a87a703          	lw	a4,168(a5) # 892 <.LBE116>
 87a:	4785                	li	a5,1
 87c:	06f71763          	bne	a4,a5,8ea <.L112>
  if(p->state == RUNNING)
 880:	4c98                	lw	a4,24(s1)
 882:	4791                	li	a5,4
 884:	06f70b63          	beq	a4,a5,8fa <.L113>

0000000000000888 <.LBB112>:
  asm volatile("csrr %0, sstatus" : "=r" (x) );
 888:	100027f3          	csrr	a5,sstatus

000000000000088c <.LBE114>:
  return (x & SSTATUS_SIE) != 0;
 88c:	8b89                	andi	a5,a5,2

000000000000088e <.LBE112>:
  if(intr_get())
 88e:	efb5                	bnez	a5,90a <.L114>

0000000000000890 <.LBB116>:
  asm volatile("mv %0, tp" : "=r" (x) );
 890:	8792                	mv	a5,tp

0000000000000892 <.LBE116>:
  intena = mycpu()->intena;
 892:	00000917          	auipc	s2,0x0
 896:	00090913          	mv	s2,s2
 89a:	2781                	sext.w	a5,a5
 89c:	079e                	slli	a5,a5,0x7
 89e:	97ca                	add	a5,a5,s2
 8a0:	0ac7a983          	lw	s3,172(a5)

00000000000008a4 <.LBB122>:
 8a4:	8792                	mv	a5,tp

00000000000008a6 <.LBE122>:
  swtch(&p->context, &mycpu()->context);
 8a6:	2781                	sext.w	a5,a5
 8a8:	079e                	slli	a5,a5,0x7
 8aa:	00000597          	auipc	a1,0x0
 8ae:	00058593          	mv	a1,a1
 8b2:	95be                	add	a1,a1,a5
 8b4:	06048513          	addi	a0,s1,96
 8b8:	00000097          	auipc	ra,0x0
 8bc:	000080e7          	jalr	ra # 8b8 <.LBE122+0x12>

00000000000008c0 <.LBB128>:
 8c0:	8792                	mv	a5,tp

00000000000008c2 <.LBE128>:
  mycpu()->intena = intena;
 8c2:	2781                	sext.w	a5,a5
 8c4:	079e                	slli	a5,a5,0x7
 8c6:	993e                	add	s2,s2,a5
 8c8:	0b392623          	sw	s3,172(s2) # 93e <.LVL187+0x8>
}
 8cc:	70a2                	ld	ra,40(sp)
 8ce:	7402                	ld	s0,32(sp)

00000000000008d0 <.LCFI66>:
 8d0:	64e2                	ld	s1,24(sp)

00000000000008d2 <.LVL179>:
 8d2:	6942                	ld	s2,16(sp)
 8d4:	69a2                	ld	s3,8(sp)
 8d6:	6145                	addi	sp,sp,48

00000000000008d8 <.LCFI67>:
 8d8:	8082                	ret

00000000000008da <.L111>:
    panic("sched p->lock");
 8da:	00000517          	auipc	a0,0x0
 8de:	00050513          	mv	a0,a0
 8e2:	00000097          	auipc	ra,0x0
 8e6:	000080e7          	jalr	ra # 8e2 <.L111+0x8>

00000000000008ea <.L112>:
    panic("sched locks");
 8ea:	00000517          	auipc	a0,0x0
 8ee:	00050513          	mv	a0,a0
 8f2:	00000097          	auipc	ra,0x0
 8f6:	000080e7          	jalr	ra # 8f2 <.L112+0x8>

00000000000008fa <.L113>:
    panic("sched running");
 8fa:	00000517          	auipc	a0,0x0
 8fe:	00050513          	mv	a0,a0
 902:	00000097          	auipc	ra,0x0
 906:	000080e7          	jalr	ra # 902 <.L113+0x8>

000000000000090a <.L114>:
    panic("sched interruptible");
 90a:	00000517          	auipc	a0,0x0
 90e:	00050513          	mv	a0,a0
 912:	00000097          	auipc	ra,0x0
 916:	000080e7          	jalr	ra # 912 <.L114+0x8>

000000000000091a <yield>:
{
 91a:	1101                	addi	sp,sp,-32

000000000000091c <.LCFI69>:
 91c:	ec06                	sd	ra,24(sp)
 91e:	e822                	sd	s0,16(sp)
 920:	e426                	sd	s1,8(sp)
 922:	1000                	addi	s0,sp,32

0000000000000924 <.LCFI70>:
  struct proc *p = myproc();
 924:	00000097          	auipc	ra,0x0
 928:	000080e7          	jalr	ra # 924 <.LCFI70>

000000000000092c <.LVL185>:
 92c:	84aa                	mv	s1,a0

000000000000092e <.LVL186>:
  acquire(&p->lock);
 92e:	00000097          	auipc	ra,0x0
 932:	000080e7          	jalr	ra # 92e <.LVL186>

0000000000000936 <.LVL187>:
  p->state = RUNNABLE;
 936:	478d                	li	a5,3
 938:	cc9c                	sw	a5,24(s1)
  sched();
 93a:	00000097          	auipc	ra,0x0
 93e:	000080e7          	jalr	ra # 93a <.LVL187+0x4>

0000000000000942 <.LVL188>:
  release(&p->lock);
 942:	8526                	mv	a0,s1
 944:	00000097          	auipc	ra,0x0
 948:	000080e7          	jalr	ra # 944 <.LVL188+0x2>

000000000000094c <.LVL189>:
}
 94c:	60e2                	ld	ra,24(sp)
 94e:	6442                	ld	s0,16(sp)

0000000000000950 <.LCFI71>:
 950:	64a2                	ld	s1,8(sp)

0000000000000952 <.LVL190>:
 952:	6105                	addi	sp,sp,32

0000000000000954 <.LCFI72>:
 954:	8082                	ret

0000000000000956 <sleep>:

// Atomically release lock and sleep on chan.
// Reacquires lock when awakened.
void
sleep(void *chan, struct spinlock *lk)
{
 956:	7179                	addi	sp,sp,-48

0000000000000958 <.LCFI73>:
 958:	f406                	sd	ra,40(sp)
 95a:	f022                	sd	s0,32(sp)
 95c:	ec26                	sd	s1,24(sp)
 95e:	e84a                	sd	s2,16(sp)
 960:	e44e                	sd	s3,8(sp)
 962:	1800                	addi	s0,sp,48

0000000000000964 <.LCFI74>:
 964:	89aa                	mv	s3,a0
 966:	892e                	mv	s2,a1
  struct proc *p = myproc();
 968:	00000097          	auipc	ra,0x0
 96c:	000080e7          	jalr	ra # 968 <.LCFI74+0x4>

0000000000000970 <.LVL192>:
 970:	84aa                	mv	s1,a0

0000000000000972 <.LVL193>:
  // Once we hold p->lock, we can be
  // guaranteed that we won't miss any wakeup
  // (wakeup locks p->lock),
  // so it's okay to release lk.

  acquire(&p->lock);  //DOC: sleeplock1
 972:	00000097          	auipc	ra,0x0
 976:	000080e7          	jalr	ra # 972 <.LVL193>

000000000000097a <.LVL194>:
  release(lk);
 97a:	854a                	mv	a0,s2
 97c:	00000097          	auipc	ra,0x0
 980:	000080e7          	jalr	ra # 97c <.LVL194+0x2>

0000000000000984 <.LVL195>:

  // Go to sleep.
  p->chan = chan;
 984:	0334b023          	sd	s3,32(s1)
  p->state = SLEEPING;
 988:	4789                	li	a5,2
 98a:	cc9c                	sw	a5,24(s1)

  sched();
 98c:	00000097          	auipc	ra,0x0
 990:	000080e7          	jalr	ra # 98c <.LVL195+0x8>

0000000000000994 <.LVL196>:

  // Tidy up.
  p->chan = 0;
 994:	0204b023          	sd	zero,32(s1)

  // Reacquire original lock.
  release(&p->lock);
 998:	8526                	mv	a0,s1
 99a:	00000097          	auipc	ra,0x0
 99e:	000080e7          	jalr	ra # 99a <.LVL196+0x6>

00000000000009a2 <.LVL197>:
  acquire(lk);
 9a2:	854a                	mv	a0,s2
 9a4:	00000097          	auipc	ra,0x0
 9a8:	000080e7          	jalr	ra # 9a4 <.LVL197+0x2>

00000000000009ac <.LVL198>:
}
 9ac:	70a2                	ld	ra,40(sp)
 9ae:	7402                	ld	s0,32(sp)

00000000000009b0 <.LCFI75>:
 9b0:	64e2                	ld	s1,24(sp)

00000000000009b2 <.LVL199>:
 9b2:	6942                	ld	s2,16(sp)

00000000000009b4 <.LVL200>:
 9b4:	69a2                	ld	s3,8(sp)

00000000000009b6 <.LVL201>:
 9b6:	6145                	addi	sp,sp,48

00000000000009b8 <.LCFI76>:
 9b8:	8082                	ret

00000000000009ba <wakeup>:

// Wake up all processes sleeping on chan.
// Must be called without any p->lock.
void
wakeup(void *chan)
{
 9ba:	7139                	addi	sp,sp,-64

00000000000009bc <.LCFI77>:
 9bc:	fc06                	sd	ra,56(sp)
 9be:	f822                	sd	s0,48(sp)
 9c0:	f426                	sd	s1,40(sp)
 9c2:	f04a                	sd	s2,32(sp)
 9c4:	ec4e                	sd	s3,24(sp)
 9c6:	e852                	sd	s4,16(sp)
 9c8:	e456                	sd	s5,8(sp)
 9ca:	0080                	addi	s0,sp,64

00000000000009cc <.LCFI78>:
 9cc:	8a2a                	mv	s4,a0

00000000000009ce <.LVL203>:
  struct proc *p;

  for(p = proc; p < &proc[NPROC]; p++) {
 9ce:	00000497          	auipc	s1,0x0
 9d2:	00048493          	mv	s1,s1
    if(p != myproc()){
      acquire(&p->lock);
      if(p->state == SLEEPING && p->chan == chan) {
 9d6:	4989                	li	s3,2
        p->state = RUNNABLE;
 9d8:	4a8d                	li	s5,3
  for(p = proc; p < &proc[NPROC]; p++) {
 9da:	00000917          	auipc	s2,0x0
 9de:	00090913          	mv	s2,s2
 9e2:	a811                	j	9f6 <.L122>

00000000000009e4 <.L121>:
      }
      release(&p->lock);
 9e4:	8526                	mv	a0,s1
 9e6:	00000097          	auipc	ra,0x0
 9ea:	000080e7          	jalr	ra # 9e6 <.L121+0x2>

00000000000009ee <.L120>:
  for(p = proc; p < &proc[NPROC]; p++) {
 9ee:	16848493          	addi	s1,s1,360 # b36 <.LBB136+0x4>
 9f2:	03248663          	beq	s1,s2,a1e <.L125>

00000000000009f6 <.L122>:
    if(p != myproc()){
 9f6:	00000097          	auipc	ra,0x0
 9fa:	000080e7          	jalr	ra # 9f6 <.L122>

00000000000009fe <.LVL208>:
 9fe:	fea488e3          	beq	s1,a0,9ee <.L120>
      acquire(&p->lock);
 a02:	8526                	mv	a0,s1
 a04:	00000097          	auipc	ra,0x0
 a08:	000080e7          	jalr	ra # a04 <.LVL208+0x6>

0000000000000a0c <.LVL209>:
      if(p->state == SLEEPING && p->chan == chan) {
 a0c:	4c9c                	lw	a5,24(s1)
 a0e:	fd379be3          	bne	a5,s3,9e4 <.L121>
 a12:	709c                	ld	a5,32(s1)
 a14:	fd4798e3          	bne	a5,s4,9e4 <.L121>
        p->state = RUNNABLE;
 a18:	0154ac23          	sw	s5,24(s1)
 a1c:	b7e1                	j	9e4 <.L121>

0000000000000a1e <.L125>:
    }
  }
}
 a1e:	70e2                	ld	ra,56(sp)
 a20:	7442                	ld	s0,48(sp)

0000000000000a22 <.LCFI79>:
 a22:	74a2                	ld	s1,40(sp)

0000000000000a24 <.LVL210>:
 a24:	7902                	ld	s2,32(sp)
 a26:	69e2                	ld	s3,24(sp)
 a28:	6a42                	ld	s4,16(sp)

0000000000000a2a <.LVL211>:
 a2a:	6aa2                	ld	s5,8(sp)
 a2c:	6121                	addi	sp,sp,64

0000000000000a2e <.LCFI80>:
 a2e:	8082                	ret

0000000000000a30 <reparent>:
{
 a30:	7179                	addi	sp,sp,-48

0000000000000a32 <.LCFI81>:
 a32:	f406                	sd	ra,40(sp)
 a34:	f022                	sd	s0,32(sp)
 a36:	ec26                	sd	s1,24(sp)
 a38:	e84a                	sd	s2,16(sp)
 a3a:	e44e                	sd	s3,8(sp)
 a3c:	e052                	sd	s4,0(sp)
 a3e:	1800                	addi	s0,sp,48

0000000000000a40 <.LCFI82>:
 a40:	892a                	mv	s2,a0

0000000000000a42 <.LVL213>:
  for(pp = proc; pp < &proc[NPROC]; pp++){
 a42:	00000497          	auipc	s1,0x0
 a46:	00048493          	mv	s1,s1
      pp->parent = initproc;
 a4a:	00000a17          	auipc	s4,0x0
 a4e:	000a0a13          	mv	s4,s4
  for(pp = proc; pp < &proc[NPROC]; pp++){
 a52:	00000997          	auipc	s3,0x0
 a56:	00098993          	mv	s3,s3
 a5a:	a029                	j	a64 <.L128>

0000000000000a5c <.L127>:
 a5c:	16848493          	addi	s1,s1,360 # baa <.L136+0x14>
 a60:	01348d63          	beq	s1,s3,a7a <.L131>

0000000000000a64 <.L128>:
    if(pp->parent == p){
 a64:	7c9c                	ld	a5,56(s1)
 a66:	ff279be3          	bne	a5,s2,a5c <.L127>
      pp->parent = initproc;
 a6a:	000a3503          	ld	a0,0(s4) # a4a <.LVL213+0x8>
 a6e:	fc88                	sd	a0,56(s1)
      wakeup(initproc);
 a70:	00000097          	auipc	ra,0x0
 a74:	000080e7          	jalr	ra # a70 <.L128+0xc>

0000000000000a78 <.LVL217>:
 a78:	b7d5                	j	a5c <.L127>

0000000000000a7a <.L131>:
}
 a7a:	70a2                	ld	ra,40(sp)
 a7c:	7402                	ld	s0,32(sp)

0000000000000a7e <.LCFI83>:
 a7e:	64e2                	ld	s1,24(sp)

0000000000000a80 <.LVL218>:
 a80:	6942                	ld	s2,16(sp)

0000000000000a82 <.LVL219>:
 a82:	69a2                	ld	s3,8(sp)
 a84:	6a02                	ld	s4,0(sp)
 a86:	6145                	addi	sp,sp,48

0000000000000a88 <.LCFI84>:
 a88:	8082                	ret

0000000000000a8a <exit>:
{
 a8a:	7179                	addi	sp,sp,-48

0000000000000a8c <.LCFI85>:
 a8c:	f406                	sd	ra,40(sp)
 a8e:	f022                	sd	s0,32(sp)
 a90:	ec26                	sd	s1,24(sp)
 a92:	e84a                	sd	s2,16(sp)
 a94:	e44e                	sd	s3,8(sp)
 a96:	e052                	sd	s4,0(sp)
 a98:	1800                	addi	s0,sp,48

0000000000000a9a <.LCFI86>:
 a9a:	89aa                	mv	s3,a0
  struct proc *p = myproc();
 a9c:	00000097          	auipc	ra,0x0
 aa0:	000080e7          	jalr	ra # a9c <.LCFI86+0x2>

0000000000000aa4 <.LVL221>:
 aa4:	892a                	mv	s2,a0

0000000000000aa6 <.LVL222>:
  if(p == initproc)
 aa6:	00000797          	auipc	a5,0x0
 aaa:	0007b783          	ld	a5,0(a5) # aa6 <.LVL222>
 aae:	0d050493          	addi	s1,a0,208 # 9da <.LVL203+0xc>
 ab2:	15050a13          	addi	s4,a0,336
 ab6:	02a79363          	bne	a5,a0,adc <.L135>
    panic("init exiting");
 aba:	00000517          	auipc	a0,0x0
 abe:	00050513          	mv	a0,a0

0000000000000ac2 <.LVL223>:
 ac2:	00000097          	auipc	ra,0x0
 ac6:	000080e7          	jalr	ra # ac2 <.LVL223>

0000000000000aca <.L146>:
      fileclose(f);
 aca:	00000097          	auipc	ra,0x0
 ace:	000080e7          	jalr	ra # aca <.L146>

0000000000000ad2 <.LVL225>:
      p->ofile[fd] = 0;
 ad2:	0004b023          	sd	zero,0(s1)

0000000000000ad6 <.L134>:
  for(int fd = 0; fd < NOFILE; fd++){
 ad6:	04a1                	addi	s1,s1,8

0000000000000ad8 <.LVL227>:
 ad8:	01448563          	beq	s1,s4,ae2 <.L145>

0000000000000adc <.L135>:
    if(p->ofile[fd]){
 adc:	6088                	ld	a0,0(s1)
 ade:	f575                	bnez	a0,aca <.L146>
 ae0:	bfdd                	j	ad6 <.L134>

0000000000000ae2 <.L145>:
  begin_op();
 ae2:	00000097          	auipc	ra,0x0
 ae6:	000080e7          	jalr	ra # ae2 <.L145>

0000000000000aea <.LVL230>:
  iput(p->cwd);
 aea:	15093503          	ld	a0,336(s2) # b2a <.LVL235+0x2>
 aee:	00000097          	auipc	ra,0x0
 af2:	000080e7          	jalr	ra # aee <.LVL230+0x4>

0000000000000af6 <.LVL231>:
  end_op();
 af6:	00000097          	auipc	ra,0x0
 afa:	000080e7          	jalr	ra # af6 <.LVL231>

0000000000000afe <.LVL232>:
  p->cwd = 0;
 afe:	14093823          	sd	zero,336(s2)
  acquire(&wait_lock);
 b02:	00000517          	auipc	a0,0x0
 b06:	00050513          	mv	a0,a0
 b0a:	00000097          	auipc	ra,0x0
 b0e:	000080e7          	jalr	ra # b0a <.LVL232+0xc>

0000000000000b12 <.LVL233>:
  reparent(p);
 b12:	854a                	mv	a0,s2
 b14:	00000097          	auipc	ra,0x0
 b18:	000080e7          	jalr	ra # b14 <.LVL233+0x2>

0000000000000b1c <.LVL234>:
  wakeup(p->parent);
 b1c:	03893503          	ld	a0,56(s2)
 b20:	00000097          	auipc	ra,0x0
 b24:	000080e7          	jalr	ra # b20 <.LVL234+0x4>

0000000000000b28 <.LVL235>:
  acquire(&p->lock);
 b28:	854a                	mv	a0,s2
 b2a:	00000097          	auipc	ra,0x0
 b2e:	000080e7          	jalr	ra # b2a <.LVL235+0x2>

0000000000000b32 <.LBB136>:
  for(struct rt_proc *rtp = rt_proc; rtp < rt_proc + n_rt_proc; rtp++) {
 b32:	00000697          	auipc	a3,0x0
 b36:	0006a683          	lw	a3,0(a3) # b32 <.LBB136>
 b3a:	00000717          	auipc	a4,0x0
 b3e:	00070713          	mv	a4,a4
 b42:	00169793          	slli	a5,a3,0x1
 b46:	97b6                	add	a5,a5,a3
 b48:	078e                	slli	a5,a5,0x3
 b4a:	97ba                	add	a5,a5,a4
 b4c:	04f77563          	bgeu	a4,a5,b96 <.L136>
 b50:	87ba                	mv	a5,a4

0000000000000b52 <.LBE136>:
  int flag = 0;
 b52:	4501                	li	a0,0

0000000000000b54 <.LBB137>:
    if (flag) *rtp = *(rtp+1);
 b54:	4885                	li	a7,1
      n_rt_proc--;
 b56:	00000597          	auipc	a1,0x0
 b5a:	00058593          	mv	a1,a1
  for(struct rt_proc *rtp = rt_proc; rtp < rt_proc + n_rt_proc; rtp++) {
 b5e:	883a                	mv	a6,a4
 b60:	a01d                	j	b86 <.L140>

0000000000000b62 <.L147>:
      n_rt_proc--;
 b62:	36fd                	addiw	a3,a3,-1
 b64:	c194                	sw	a3,0(a1)

0000000000000b66 <.L138>:
    if (flag) *rtp = *(rtp+1);
 b66:	6f98                	ld	a4,24(a5)
 b68:	e398                	sd	a4,0(a5)
 b6a:	7398                	ld	a4,32(a5)
 b6c:	e798                	sd	a4,8(a5)
 b6e:	7798                	ld	a4,40(a5)
 b70:	eb98                	sd	a4,16(a5)
 b72:	8546                	mv	a0,a7

0000000000000b74 <.L139>:
  for(struct rt_proc *rtp = rt_proc; rtp < rt_proc + n_rt_proc; rtp++) {
 b74:	07e1                	addi	a5,a5,24

0000000000000b76 <.LVL239>:
 b76:	4194                	lw	a3,0(a1)
 b78:	00169713          	slli	a4,a3,0x1
 b7c:	9736                	add	a4,a4,a3
 b7e:	070e                	slli	a4,a4,0x3
 b80:	9742                	add	a4,a4,a6
 b82:	00e7fa63          	bgeu	a5,a4,b96 <.L136>

0000000000000b86 <.L140>:
    if (rtp->proc->pid == p->pid) {
 b86:	6398                	ld	a4,0(a5)
 b88:	5b10                	lw	a2,48(a4)
 b8a:	03092703          	lw	a4,48(s2)
 b8e:	fce60ae3          	beq	a2,a4,b62 <.L147>
    if (flag) *rtp = *(rtp+1);
 b92:	d16d                	beqz	a0,b74 <.L139>
 b94:	bfc9                	j	b66 <.L138>

0000000000000b96 <.L136>:
  p->xstate = status;
 b96:	03392623          	sw	s3,44(s2)
  p->state = ZOMBIE;
 b9a:	4795                	li	a5,5
 b9c:	00f92c23          	sw	a5,24(s2)
  release(&wait_lock);
 ba0:	00000517          	auipc	a0,0x0
 ba4:	00050513          	mv	a0,a0
 ba8:	00000097          	auipc	ra,0x0
 bac:	000080e7          	jalr	ra # ba8 <.L136+0x12>

0000000000000bb0 <.LVL242>:
  sched();
 bb0:	00000097          	auipc	ra,0x0
 bb4:	000080e7          	jalr	ra # bb0 <.LVL242>

0000000000000bb8 <.LVL243>:
  panic("zombie exit");
 bb8:	00000517          	auipc	a0,0x0
 bbc:	00050513          	mv	a0,a0
 bc0:	00000097          	auipc	ra,0x0
 bc4:	000080e7          	jalr	ra # bc0 <.LVL243+0x8>

0000000000000bc8 <kill>:
// Kill the process with the given pid.
// The victim won't exit until it tries to return
// to user space (see usertrap() in trap.c).
int
kill(int pid)
{
 bc8:	7179                	addi	sp,sp,-48

0000000000000bca <.LCFI87>:
 bca:	f406                	sd	ra,40(sp)
 bcc:	f022                	sd	s0,32(sp)
 bce:	ec26                	sd	s1,24(sp)
 bd0:	e84a                	sd	s2,16(sp)
 bd2:	e44e                	sd	s3,8(sp)
 bd4:	1800                	addi	s0,sp,48

0000000000000bd6 <.LCFI88>:
 bd6:	892a                	mv	s2,a0

0000000000000bd8 <.LVL246>:
  struct proc *p;

  for(p = proc; p < &proc[NPROC]; p++){
 bd8:	00000497          	auipc	s1,0x0
 bdc:	00048493          	mv	s1,s1
 be0:	00000997          	auipc	s3,0x0
 be4:	00098993          	mv	s3,s3

0000000000000be8 <.L152>:
    acquire(&p->lock);
 be8:	8526                	mv	a0,s1
 bea:	00000097          	auipc	ra,0x0
 bee:	000080e7          	jalr	ra # bea <.L152+0x2>

0000000000000bf2 <.LVL248>:
    if(p->pid == pid){
 bf2:	589c                	lw	a5,48(s1)
 bf4:	01278d63          	beq	a5,s2,c0e <.L155>
        p->state = RUNNABLE;
      }
      release(&p->lock);
      return 0;
    }
    release(&p->lock);
 bf8:	8526                	mv	a0,s1
 bfa:	00000097          	auipc	ra,0x0
 bfe:	000080e7          	jalr	ra # bfa <.LVL248+0x8>

0000000000000c02 <.LVL249>:
  for(p = proc; p < &proc[NPROC]; p++){
 c02:	16848493          	addi	s1,s1,360 # d40 <.LVL276+0x2>
 c06:	ff3491e3          	bne	s1,s3,be8 <.L152>
  }
  return -1;
 c0a:	557d                	li	a0,-1
 c0c:	a829                	j	c26 <.L151>

0000000000000c0e <.L155>:
      p->killed = 1;
 c0e:	4785                	li	a5,1
 c10:	d49c                	sw	a5,40(s1)
      if(p->state == SLEEPING){
 c12:	4c98                	lw	a4,24(s1)
 c14:	4789                	li	a5,2
 c16:	00f70f63          	beq	a4,a5,c34 <.L156>

0000000000000c1a <.L150>:
      release(&p->lock);
 c1a:	8526                	mv	a0,s1
 c1c:	00000097          	auipc	ra,0x0
 c20:	000080e7          	jalr	ra # c1c <.L150+0x2>

0000000000000c24 <.LVL251>:
      return 0;
 c24:	4501                	li	a0,0

0000000000000c26 <.L151>:
}
 c26:	70a2                	ld	ra,40(sp)
 c28:	7402                	ld	s0,32(sp)

0000000000000c2a <.LCFI89>:
 c2a:	64e2                	ld	s1,24(sp)

0000000000000c2c <.LVL252>:
 c2c:	6942                	ld	s2,16(sp)
 c2e:	69a2                	ld	s3,8(sp)
 c30:	6145                	addi	sp,sp,48

0000000000000c32 <.LCFI90>:
 c32:	8082                	ret

0000000000000c34 <.L156>:
        p->state = RUNNABLE;
 c34:	478d                	li	a5,3
 c36:	cc9c                	sw	a5,24(s1)
 c38:	b7cd                	j	c1a <.L150>

0000000000000c3a <setkilled>:

void
setkilled(struct proc *p)
{
 c3a:	1101                	addi	sp,sp,-32

0000000000000c3c <.LCFI92>:
 c3c:	ec06                	sd	ra,24(sp)
 c3e:	e822                	sd	s0,16(sp)
 c40:	e426                	sd	s1,8(sp)
 c42:	1000                	addi	s0,sp,32

0000000000000c44 <.LCFI93>:
 c44:	84aa                	mv	s1,a0
  acquire(&p->lock);
 c46:	00000097          	auipc	ra,0x0
 c4a:	000080e7          	jalr	ra # c46 <.LCFI93+0x2>

0000000000000c4e <.LVL255>:
  p->killed = 1;
 c4e:	4785                	li	a5,1
 c50:	d49c                	sw	a5,40(s1)
  release(&p->lock);
 c52:	8526                	mv	a0,s1
 c54:	00000097          	auipc	ra,0x0
 c58:	000080e7          	jalr	ra # c54 <.LVL255+0x6>

0000000000000c5c <.LVL256>:
}
 c5c:	60e2                	ld	ra,24(sp)
 c5e:	6442                	ld	s0,16(sp)

0000000000000c60 <.LCFI94>:
 c60:	64a2                	ld	s1,8(sp)

0000000000000c62 <.LVL257>:
 c62:	6105                	addi	sp,sp,32

0000000000000c64 <.LCFI95>:
 c64:	8082                	ret

0000000000000c66 <killed>:

int
killed(struct proc *p)
{
 c66:	1101                	addi	sp,sp,-32

0000000000000c68 <.LCFI96>:
 c68:	ec06                	sd	ra,24(sp)
 c6a:	e822                	sd	s0,16(sp)
 c6c:	e426                	sd	s1,8(sp)
 c6e:	e04a                	sd	s2,0(sp)
 c70:	1000                	addi	s0,sp,32

0000000000000c72 <.LCFI97>:
 c72:	84aa                	mv	s1,a0
  int k;
  
  acquire(&p->lock);
 c74:	00000097          	auipc	ra,0x0
 c78:	000080e7          	jalr	ra # c74 <.LCFI97+0x2>

0000000000000c7c <.LVL259>:
  k = p->killed;
 c7c:	0284a903          	lw	s2,40(s1)

0000000000000c80 <.LVL260>:
  release(&p->lock);
 c80:	8526                	mv	a0,s1
 c82:	00000097          	auipc	ra,0x0
 c86:	000080e7          	jalr	ra # c82 <.LVL260+0x2>

0000000000000c8a <.LVL261>:
  return k;
}
 c8a:	854a                	mv	a0,s2
 c8c:	60e2                	ld	ra,24(sp)
 c8e:	6442                	ld	s0,16(sp)

0000000000000c90 <.LCFI98>:
 c90:	64a2                	ld	s1,8(sp)

0000000000000c92 <.LVL262>:
 c92:	6902                	ld	s2,0(sp)

0000000000000c94 <.LVL263>:
 c94:	6105                	addi	sp,sp,32

0000000000000c96 <.LCFI99>:
 c96:	8082                	ret

0000000000000c98 <wait>:
{
 c98:	715d                	addi	sp,sp,-80

0000000000000c9a <.LCFI100>:
 c9a:	e486                	sd	ra,72(sp)
 c9c:	e0a2                	sd	s0,64(sp)
 c9e:	fc26                	sd	s1,56(sp)
 ca0:	f84a                	sd	s2,48(sp)
 ca2:	f44e                	sd	s3,40(sp)
 ca4:	f052                	sd	s4,32(sp)
 ca6:	ec56                	sd	s5,24(sp)
 ca8:	e85a                	sd	s6,16(sp)
 caa:	e45e                	sd	s7,8(sp)
 cac:	e062                	sd	s8,0(sp)
 cae:	0880                	addi	s0,sp,80

0000000000000cb0 <.LCFI101>:
 cb0:	8b2a                	mv	s6,a0
  struct proc *p = myproc();
 cb2:	00000097          	auipc	ra,0x0
 cb6:	000080e7          	jalr	ra # cb2 <.LCFI101+0x2>

0000000000000cba <.LVL265>:
 cba:	892a                	mv	s2,a0

0000000000000cbc <.LVL266>:
  acquire(&wait_lock);
 cbc:	00000517          	auipc	a0,0x0
 cc0:	00050513          	mv	a0,a0

0000000000000cc4 <.LVL267>:
 cc4:	00000097          	auipc	ra,0x0
 cc8:	000080e7          	jalr	ra # cc4 <.LVL267>

0000000000000ccc <.LVL268>:
    havekids = 0;
 ccc:	4b81                	li	s7,0
        if(pp->state == ZOMBIE){
 cce:	4a15                	li	s4,5
        havekids = 1;
 cd0:	4a85                	li	s5,1
    for(pp = proc; pp < &proc[NPROC]; pp++){
 cd2:	00000997          	auipc	s3,0x0
 cd6:	00098993          	mv	s3,s3
    sleep(p, &wait_lock);  //DOC: wait-sleep
 cda:	00000c17          	auipc	s8,0x0
 cde:	000c0c13          	mv	s8,s8

0000000000000ce2 <.L169>:
    havekids = 0;
 ce2:	875e                	mv	a4,s7
    for(pp = proc; pp < &proc[NPROC]; pp++){
 ce4:	00000497          	auipc	s1,0x0
 ce8:	00048493          	mv	s1,s1
 cec:	a0bd                	j	d5a <.L166>

0000000000000cee <.L174>:
          pid = pp->pid;
 cee:	0304a983          	lw	s3,48(s1) # d14 <.L164+0x6>

0000000000000cf2 <.LVL271>:
          if(addr != 0 && copyout(p->pagetable, addr, (char *)&pp->xstate,
 cf2:	000b0e63          	beqz	s6,d0e <.L164>
 cf6:	4691                	li	a3,4
 cf8:	02c48613          	addi	a2,s1,44
 cfc:	85da                	mv	a1,s6
 cfe:	05093503          	ld	a0,80(s2)
 d02:	00000097          	auipc	ra,0x0
 d06:	000080e7          	jalr	ra # d02 <.LVL271+0x10>

0000000000000d0a <.LVL272>:
 d0a:	02054563          	bltz	a0,d34 <.L172>

0000000000000d0e <.L164>:
          freeproc(pp);
 d0e:	8526                	mv	a0,s1
 d10:	00000097          	auipc	ra,0x0
 d14:	000080e7          	jalr	ra # d10 <.L164+0x2>

0000000000000d18 <.LVL273>:
          release(&pp->lock);
 d18:	8526                	mv	a0,s1
 d1a:	00000097          	auipc	ra,0x0
 d1e:	000080e7          	jalr	ra # d1a <.LVL273+0x2>

0000000000000d22 <.LVL274>:
          release(&wait_lock);
 d22:	00000517          	auipc	a0,0x0
 d26:	00050513          	mv	a0,a0
 d2a:	00000097          	auipc	ra,0x0
 d2e:	000080e7          	jalr	ra # d2a <.LVL274+0x8>

0000000000000d32 <.LVL275>:
          return pid;
 d32:	a0b5                	j	d9e <.L165>

0000000000000d34 <.L172>:
            release(&pp->lock);
 d34:	8526                	mv	a0,s1
 d36:	00000097          	auipc	ra,0x0
 d3a:	000080e7          	jalr	ra # d36 <.L172+0x2>

0000000000000d3e <.LVL276>:
            release(&wait_lock);
 d3e:	00000517          	auipc	a0,0x0
 d42:	00050513          	mv	a0,a0
 d46:	00000097          	auipc	ra,0x0
 d4a:	000080e7          	jalr	ra # d46 <.LVL276+0x8>

0000000000000d4e <.LVL277>:
            return -1;
 d4e:	59fd                	li	s3,-1

0000000000000d50 <.LVL278>:
 d50:	a0b9                	j	d9e <.L165>

0000000000000d52 <.L162>:
    for(pp = proc; pp < &proc[NPROC]; pp++){
 d52:	16848493          	addi	s1,s1,360
 d56:	03348463          	beq	s1,s3,d7e <.L173>

0000000000000d5a <.L166>:
      if(pp->parent == p){
 d5a:	7c9c                	ld	a5,56(s1)
 d5c:	ff279be3          	bne	a5,s2,d52 <.L162>
        acquire(&pp->lock);
 d60:	8526                	mv	a0,s1
 d62:	00000097          	auipc	ra,0x0
 d66:	000080e7          	jalr	ra # d62 <.L166+0x8>

0000000000000d6a <.LVL282>:
        if(pp->state == ZOMBIE){
 d6a:	4c9c                	lw	a5,24(s1)
 d6c:	f94781e3          	beq	a5,s4,cee <.L174>
        release(&pp->lock);
 d70:	8526                	mv	a0,s1
 d72:	00000097          	auipc	ra,0x0
 d76:	000080e7          	jalr	ra # d72 <.LVL282+0x8>

0000000000000d7a <.LVL283>:
        havekids = 1;
 d7a:	8756                	mv	a4,s5
 d7c:	bfd9                	j	d52 <.L162>

0000000000000d7e <.L173>:
    if(!havekids || killed(p)){
 d7e:	c719                	beqz	a4,d8c <.L167>
 d80:	854a                	mv	a0,s2
 d82:	00000097          	auipc	ra,0x0
 d86:	000080e7          	jalr	ra # d82 <.L173+0x4>

0000000000000d8a <.LVL285>:
 d8a:	c51d                	beqz	a0,db8 <.L168>

0000000000000d8c <.L167>:
      release(&wait_lock);
 d8c:	00000517          	auipc	a0,0x0
 d90:	00050513          	mv	a0,a0
 d94:	00000097          	auipc	ra,0x0
 d98:	000080e7          	jalr	ra # d94 <.L167+0x8>

0000000000000d9c <.LVL286>:
      return -1;
 d9c:	59fd                	li	s3,-1

0000000000000d9e <.L165>:
}
 d9e:	854e                	mv	a0,s3
 da0:	60a6                	ld	ra,72(sp)
 da2:	6406                	ld	s0,64(sp)

0000000000000da4 <.LCFI102>:
 da4:	74e2                	ld	s1,56(sp)

0000000000000da6 <.LVL287>:
 da6:	7942                	ld	s2,48(sp)

0000000000000da8 <.LVL288>:
 da8:	79a2                	ld	s3,40(sp)
 daa:	7a02                	ld	s4,32(sp)
 dac:	6ae2                	ld	s5,24(sp)
 dae:	6b42                	ld	s6,16(sp)

0000000000000db0 <.LVL289>:
 db0:	6ba2                	ld	s7,8(sp)
 db2:	6c02                	ld	s8,0(sp)
 db4:	6161                	addi	sp,sp,80

0000000000000db6 <.LCFI103>:
 db6:	8082                	ret

0000000000000db8 <.L168>:
    sleep(p, &wait_lock);  //DOC: wait-sleep
 db8:	85e2                	mv	a1,s8
 dba:	854a                	mv	a0,s2
 dbc:	00000097          	auipc	ra,0x0
 dc0:	000080e7          	jalr	ra # dbc <.L168+0x4>

0000000000000dc4 <.LVL291>:
    havekids = 0;
 dc4:	bf39                	j	ce2 <.L169>

0000000000000dc6 <either_copyout>:
// Copy to either a user address, or kernel address,
// depending on usr_dst.
// Returns 0 on success, -1 on error.
int
either_copyout(int user_dst, uint64 dst, void *src, uint64 len)
{
 dc6:	7179                	addi	sp,sp,-48

0000000000000dc8 <.LCFI105>:
 dc8:	f406                	sd	ra,40(sp)
 dca:	f022                	sd	s0,32(sp)
 dcc:	ec26                	sd	s1,24(sp)
 dce:	e84a                	sd	s2,16(sp)
 dd0:	e44e                	sd	s3,8(sp)
 dd2:	e052                	sd	s4,0(sp)
 dd4:	1800                	addi	s0,sp,48

0000000000000dd6 <.LCFI106>:
 dd6:	84aa                	mv	s1,a0
 dd8:	892e                	mv	s2,a1
 dda:	89b2                	mv	s3,a2
 ddc:	8a36                	mv	s4,a3
  struct proc *p = myproc();
 dde:	00000097          	auipc	ra,0x0
 de2:	000080e7          	jalr	ra # dde <.LCFI106+0x8>

0000000000000de6 <.LVL293>:
  if(user_dst){
 de6:	c08d                	beqz	s1,e08 <.L176>
    return copyout(p->pagetable, dst, src, len);
 de8:	86d2                	mv	a3,s4
 dea:	864e                	mv	a2,s3
 dec:	85ca                	mv	a1,s2
 dee:	6928                	ld	a0,80(a0)

0000000000000df0 <.LVL294>:
 df0:	00000097          	auipc	ra,0x0
 df4:	000080e7          	jalr	ra # df0 <.LVL294>

0000000000000df8 <.L177>:
  } else {
    memmove((char *)dst, src, len);
    return 0;
  }
}
 df8:	70a2                	ld	ra,40(sp)
 dfa:	7402                	ld	s0,32(sp)

0000000000000dfc <.LCFI107>:
 dfc:	64e2                	ld	s1,24(sp)
 dfe:	6942                	ld	s2,16(sp)

0000000000000e00 <.LVL296>:
 e00:	69a2                	ld	s3,8(sp)

0000000000000e02 <.LVL297>:
 e02:	6a02                	ld	s4,0(sp)

0000000000000e04 <.LVL298>:
 e04:	6145                	addi	sp,sp,48

0000000000000e06 <.LCFI108>:
 e06:	8082                	ret

0000000000000e08 <.L176>:
    memmove((char *)dst, src, len);
 e08:	000a061b          	sext.w	a2,s4
 e0c:	85ce                	mv	a1,s3
 e0e:	854a                	mv	a0,s2

0000000000000e10 <.LVL300>:
 e10:	00000097          	auipc	ra,0x0
 e14:	000080e7          	jalr	ra # e10 <.LVL300>

0000000000000e18 <.LVL301>:
    return 0;
 e18:	8526                	mv	a0,s1
 e1a:	bff9                	j	df8 <.L177>

0000000000000e1c <either_copyin>:
// Copy from either a user address, or kernel address,
// depending on usr_src.
// Returns 0 on success, -1 on error.
int
either_copyin(void *dst, int user_src, uint64 src, uint64 len)
{
 e1c:	7179                	addi	sp,sp,-48

0000000000000e1e <.LCFI110>:
 e1e:	f406                	sd	ra,40(sp)
 e20:	f022                	sd	s0,32(sp)
 e22:	ec26                	sd	s1,24(sp)
 e24:	e84a                	sd	s2,16(sp)
 e26:	e44e                	sd	s3,8(sp)
 e28:	e052                	sd	s4,0(sp)
 e2a:	1800                	addi	s0,sp,48

0000000000000e2c <.LCFI111>:
 e2c:	892a                	mv	s2,a0
 e2e:	84ae                	mv	s1,a1
 e30:	89b2                	mv	s3,a2
 e32:	8a36                	mv	s4,a3
  struct proc *p = myproc();
 e34:	00000097          	auipc	ra,0x0
 e38:	000080e7          	jalr	ra # e34 <.LCFI111+0x8>

0000000000000e3c <.LVL303>:
  if(user_src){
 e3c:	c08d                	beqz	s1,e5e <.L180>
    return copyin(p->pagetable, dst, src, len);
 e3e:	86d2                	mv	a3,s4
 e40:	864e                	mv	a2,s3
 e42:	85ca                	mv	a1,s2
 e44:	6928                	ld	a0,80(a0)

0000000000000e46 <.LVL304>:
 e46:	00000097          	auipc	ra,0x0
 e4a:	000080e7          	jalr	ra # e46 <.LVL304>

0000000000000e4e <.L181>:
  } else {
    memmove(dst, (char*)src, len);
    return 0;
  }
}
 e4e:	70a2                	ld	ra,40(sp)
 e50:	7402                	ld	s0,32(sp)

0000000000000e52 <.LCFI112>:
 e52:	64e2                	ld	s1,24(sp)
 e54:	6942                	ld	s2,16(sp)

0000000000000e56 <.LVL306>:
 e56:	69a2                	ld	s3,8(sp)

0000000000000e58 <.LVL307>:
 e58:	6a02                	ld	s4,0(sp)

0000000000000e5a <.LVL308>:
 e5a:	6145                	addi	sp,sp,48

0000000000000e5c <.LCFI113>:
 e5c:	8082                	ret

0000000000000e5e <.L180>:
    memmove(dst, (char*)src, len);
 e5e:	000a061b          	sext.w	a2,s4
 e62:	85ce                	mv	a1,s3
 e64:	854a                	mv	a0,s2

0000000000000e66 <.LVL310>:
 e66:	00000097          	auipc	ra,0x0
 e6a:	000080e7          	jalr	ra # e66 <.LVL310>

0000000000000e6e <.LVL311>:
    return 0;
 e6e:	8526                	mv	a0,s1
 e70:	bff9                	j	e4e <.L181>

0000000000000e72 <procdump>:
// Print a process listing to console.  For debugging.
// Runs when user types ^P on console.
// No lock to avoid wedging a stuck machine further.
void
procdump(void)
{
 e72:	715d                	addi	sp,sp,-80

0000000000000e74 <.LCFI115>:
 e74:	e486                	sd	ra,72(sp)
 e76:	e0a2                	sd	s0,64(sp)
 e78:	fc26                	sd	s1,56(sp)
 e7a:	f84a                	sd	s2,48(sp)
 e7c:	f44e                	sd	s3,40(sp)
 e7e:	f052                	sd	s4,32(sp)
 e80:	ec56                	sd	s5,24(sp)
 e82:	e85a                	sd	s6,16(sp)
 e84:	e45e                	sd	s7,8(sp)
 e86:	0880                	addi	s0,sp,80

0000000000000e88 <.LCFI116>:
  [ZOMBIE]    "zombie"
  };
  struct proc *p;
  char *state;

  printf("\n");
 e88:	00000517          	auipc	a0,0x0
 e8c:	00050513          	mv	a0,a0
 e90:	00000097          	auipc	ra,0x0
 e94:	000080e7          	jalr	ra # e90 <.LCFI116+0x8>

0000000000000e98 <.LVL312>:
  for(p = proc; p < &proc[NPROC]; p++){
 e98:	00000497          	auipc	s1,0x0
 e9c:	00048493          	mv	s1,s1
 ea0:	00000917          	auipc	s2,0x0
 ea4:	00090913          	mv	s2,s2
    if(p->state == UNUSED)
      continue;
    if(p->state >= 0 && p->state < NELEM(states) && states[p->state])
 ea8:	4b15                	li	s6,5
      state = states[p->state];
    else
      state = "???";
 eaa:	00000997          	auipc	s3,0x0
 eae:	00098993          	mv	s3,s3
    printf("%d %s %s", p->pid, state, p->name);
 eb2:	00000a97          	auipc	s5,0x0
 eb6:	000a8a93          	mv	s5,s5
    printf("\n");
 eba:	00000a17          	auipc	s4,0x0
 ebe:	000a0a13          	mv	s4,s4
    if(p->state >= 0 && p->state < NELEM(states) && states[p->state])
 ec2:	00000b97          	auipc	s7,0x0
 ec6:	000b8b93          	mv	s7,s7
 eca:	a00d                	j	eec <.L186>

0000000000000ecc <.L185>:
    printf("%d %s %s", p->pid, state, p->name);
 ecc:	ed86a583          	lw	a1,-296(a3)
 ed0:	8556                	mv	a0,s5
 ed2:	00000097          	auipc	ra,0x0
 ed6:	000080e7          	jalr	ra # ed2 <.L185+0x6>

0000000000000eda <.LVL314>:
    printf("\n");
 eda:	8552                	mv	a0,s4
 edc:	00000097          	auipc	ra,0x0
 ee0:	000080e7          	jalr	ra # edc <.LVL314+0x2>

0000000000000ee4 <.L184>:
  for(p = proc; p < &proc[NPROC]; p++){
 ee4:	16848493          	addi	s1,s1,360 # 1000 <.LLST80+0x1d>

0000000000000ee8 <.LVL316>:
 ee8:	03248263          	beq	s1,s2,f0c <.L191>

0000000000000eec <.L186>:
    if(p->state == UNUSED)
 eec:	86a6                	mv	a3,s1
 eee:	ec04a783          	lw	a5,-320(s1)
 ef2:	dbed                	beqz	a5,ee4 <.L184>
      state = "???";
 ef4:	864e                	mv	a2,s3
    if(p->state >= 0 && p->state < NELEM(states) && states[p->state])
 ef6:	fcfb6be3          	bltu	s6,a5,ecc <.L185>
 efa:	02079713          	slli	a4,a5,0x20
 efe:	01d75793          	srli	a5,a4,0x1d
 f02:	97de                	add	a5,a5,s7
 f04:	6390                	ld	a2,0(a5)
 f06:	f279                	bnez	a2,ecc <.L185>
      state = "???";
 f08:	864e                	mv	a2,s3
 f0a:	b7c9                	j	ecc <.L185>

0000000000000f0c <.L191>:
  }
}
 f0c:	60a6                	ld	ra,72(sp)
 f0e:	6406                	ld	s0,64(sp)

0000000000000f10 <.LCFI117>:
 f10:	74e2                	ld	s1,56(sp)

0000000000000f12 <.LVL318>:
 f12:	7942                	ld	s2,48(sp)
 f14:	79a2                	ld	s3,40(sp)
 f16:	7a02                	ld	s4,32(sp)
 f18:	6ae2                	ld	s5,24(sp)
 f1a:	6b42                	ld	s6,16(sp)
 f1c:	6ba2                	ld	s7,8(sp)
 f1e:	6161                	addi	sp,sp,80

0000000000000f20 <.LCFI118>:
 f20:	8082                	ret
